(dp0
S'14191'
p1
I832
sS'17528'
p2
I2063
sS'20050'
p3
I2965
sS'17529'
p4
I2064
sS'20051'
p5
I2966
sS'16424'
p6
I1607
sS'20052'
p7
I2967
sS'13358'
p8
I485
sS'20053'
p9
I2968
sS'17524'
p10
I2059
sS'18242'
p11
I2291
sS'18243'
p12
I2292
sS'17522'
p13
I2057
sS'18240'
p14
I2289
sS'19828'
p15
I2905
sS'18241'
p16
I2290
sS'16745'
p17
I1766
sS'18246'
p18
I2295
sS'18247'
p19
I2296
sS'16673'
p20
I1694
sS'16675'
p21
I1696
sS'16674'
p22
I1695
sS'16677'
p23
I1698
sS'16676'
p24
I1697
sS'16679'
p25
I1700
sS'16678'
p26
I1699
sS'18245'
p27
I2294
sS'13603'
p28
I568
sS'13602'
p29
I567
sS'13601'
p30
I566
sS'13607'
p31
I572
sS'13606'
p32
I571
sS'13605'
p33
I570
sS'13604'
p34
I569
sS'13609'
p35
I574
sS'13608'
p36
I573
sS'16499'
p37
I1682
sS'16498'
p38
I1681
sS'16495'
p39
I1678
sS'16494'
p40
I1677
sS'16497'
p41
I1680
sS'16496'
p42
I1679
sS'16491'
p43
I1674
sS'16490'
p44
I1673
sS'16493'
p45
I1676
sS'16492'
p46
I1675
sS'16253'
p47
I1598
sS'16252'
p48
I1597
sS'16251'
p49
I1596
sS'16250'
p50
I1595
sS'16709'
p51
I1730
sS'16708'
p52
I1729
sS'16254'
p53
I1599
sS'16705'
p54
I1726
sS'16704'
p55
I1725
sS'16707'
p56
I1728
sS'16706'
p57
I1727
sS'16701'
p58
I1722
sS'16700'
p59
I1721
sS'16703'
p60
I1724
sS'16702'
p61
I1723
sS'19577'
p62
I2816
sS'19576'
p63
I2815
sS'19575'
p64
I2814
sS'19574'
p65
I2813
sS'19573'
p66
I2812
sS'19572'
p67
I2811
sS'19571'
p68
I2810
sS'19570'
p69
I2809
sS'17250'
p70
I1947
sS'17251'
p71
I1948
sS'17252'
p72
I1949
sS'17253'
p73
I1950
sS'17254'
p74
I1951
sS'17255'
p75
I1952
sS'17256'
p76
I1953
sS'17257'
p77
I1954
sS'15205'
p78
I1198
sS'15480'
p79
I1311
sS'9258'
p80
I3065
sS'9259'
p81
I3066
sS'9256'
p82
I3064
sS'15955'
p83
I1462
sS'9254'
p84
I3063
sS'9252'
p85
I3062
sS'15207'
p86
I1200
sS'9250'
p87
I3061
sS'15486'
p88
I1317
sS'215'
p89
I41
sS'15206'
p90
I1199
sS'15485'
p91
I1316
sS'15201'
p92
I1194
sS'15484'
p93
I1315
sS'15200'
p94
I1193
sS'15203'
p95
I1196
sS'19013'
p96
I2576
sS'14442'
p97
I921
sS'14443'
p98
I922
sS'14138'
p99
I779
sS'14139'
p100
I780
sS'14130'
p101
I771
sS'14131'
p102
I772
sS'14132'
p103
I773
sS'14133'
p104
I774
sS'14134'
p105
I775
sS'14135'
p106
I776
sS'14136'
p107
I777
sS'14137'
p108
I778
sS'17728'
p109
I2101
sS'17729'
p110
I2102
sS'9322'
p111
I3129
sS'17725'
p112
I2098
sS'17726'
p113
I2099
sS'17727'
p114
I2100
sS'17720'
p115
I2093
sS'17721'
p116
I2094
sS'17722'
p117
I2095
sS'17723'
p118
I2096
sS'16929'
p119
I1788
sS'15449'
p120
I1280
sS'14625'
p121
I942
sS'14626'
p122
I943
sS'14627'
p123
I944
sS'15719'
p124
I1388
sS'15718'
p125
I1387
sS'15717'
p126
I1386
sS'15716'
p127
I1385
sS'15715'
p128
I1384
sS'15714'
p129
I1383
sS'15713'
p130
I1382
sS'15712'
p131
I1381
sS'15711'
p132
I1380
sS'15710'
p133
I1379
sS'90'
p134
I94
sS'92'
p135
I95
sS'14683'
p136
I1000
sS'14710'
p137
I1027
sS'14711'
p138
I1028
sS'15669'
p139
I1338
sS'15668'
p140
I1337
sS'14714'
p141
I1031
sS'14715'
p142
I1032
sS'14716'
p143
I1033
sS'14717'
p144
I1034
sS'14718'
p145
I1035
sS'15662'
p146
I1331
sS'15661'
p147
I1330
sS'15660'
p148
I1329
sS'15667'
p149
I1336
sS'15666'
p150
I1335
sS'15665'
p151
I1334
sS'15664'
p152
I1333
sS'20258'
p153
I3011
sS'20259'
p154
I3012
sS'20257'
p155
I3010
sS'14394'
p156
I873
sS'14395'
p157
I874
sS'14396'
p158
I875
sS'14397'
p159
I876
sS'14390'
p160
I869
sS'14391'
p161
I870
sS'14392'
p162
I871
sS'14393'
p163
I872
sS'14398'
p164
I877
sS'14399'
p165
I878
sS'13948'
p166
I751
sS'13949'
p167
I752
sS'15917'
p168
I1424
sS'15916'
p169
I1423
sS'15443'
p170
I1274
sS'15442'
p171
I1273
sS'15441'
p172
I1272
sS'15440'
p173
I1271
sS'13940'
p174
I743
sS'13941'
p175
I744
sS'13942'
p176
I745
sS'13943'
p177
I746
sS'15919'
p178
I1426
sS'15918'
p179
I1425
sS'13946'
p180
I749
sS'13947'
p181
I750
sS'12592'
p182
I205
sS'19273'
p183
I2674
sS'14408'
p184
I887
sS'14409'
p185
I888
sS'14404'
p186
I883
sS'14405'
p187
I884
sS'14406'
p188
I885
sS'14407'
p189
I886
sS'14400'
p190
I879
sS'14401'
p191
I880
sS'14402'
p192
I881
sS'14403'
p193
I882
sS'12877'
p194
I328
sS'12876'
p195
I327
sS'12833'
p196
I284
sS'12874'
p197
I325
sS'12837'
p198
I288
sS'16930'
p199
I1789
sS'12835'
p200
I286
sS'12834'
p201
I285
sS'18804'
p202
I2529
sS'12839'
p203
I290
sS'12838'
p204
I289
sS'17473'
p205
I2008
sS'18805'
p206
I2530
sS'13126'
p207
I415
sS'12879'
p208
I330
sS'13877'
p209
I680
sS'18807'
p210
I2532
sS'14646'
p211
I963
sS'14647'
p212
I964
sS'19300'
p213
I2701
sS'13618'
p214
I583
sS'13619'
p215
I584
sS'19301'
p216
I2702
sS'15209'
p217
I1202
sS'13615'
p218
I580
sS'13616'
p219
I581
sS'13617'
p220
I582
sS'13610'
p221
I575
sS'19302'
p222
I2703
sS'13612'
p223
I577
sS'13613'
p224
I578
sS'19303'
p225
I2704
sS'19304'
p226
I2705
sS'18547'
p227
I2434
sS'19305'
p228
I2706
sS'18546'
p229
I2433
sS'19306'
p230
I2707
sS'16488'
p231
I1671
sS'16489'
p232
I1672
sS'16486'
p233
I1669
sS'16487'
p234
I1670
sS'16484'
p235
I1667
sS'16485'
p236
I1668
sS'16482'
p237
I1665
sS'16483'
p238
I1666
sS'16480'
p239
I1663
sS'16481'
p240
I1664
sS'16248'
p241
I1593
sS'16249'
p242
I1594
sS'16718'
p243
I1739
sS'16719'
p244
I1740
sS'16716'
p245
I1737
sS'16717'
p246
I1738
sS'16714'
p247
I1735
sS'16715'
p248
I1736
sS'16712'
p249
I1733
sS'16713'
p250
I1734
sS'16710'
p251
I1731
sS'16711'
p252
I1732
sS'16752'
p253
I1773
sS'18803'
p254
I2528
sS'19560'
p255
I2799
sS'19561'
p256
I2800
sS'19562'
p257
I2801
sS'19563'
p258
I2802
sS'19564'
p259
I2803
sS'19565'
p260
I2804
sS'19566'
p261
I2805
sS'19567'
p262
I2806
sS'19568'
p263
I2807
sS'19569'
p264
I2808
sS'16753'
p265
I1774
sS'179'
p266
I5
sS'178'
p267
I4
sS'177'
p268
I3
sS'17534'
p269
I2069
sS'17531'
p270
I2066
sS'17530'
p271
I2065
sS'17533'
p272
I2068
sS'17532'
p273
I2067
sS'16750'
p274
I1771
sS'195'
p275
I21
sS'194'
p276
I20
sS'17998'
p277
I2209
sS'17227'
p278
I1924
sS'16751'
p279
I1772
sS'17226'
p280
I1923
sS'9331'
p281
I3135
sS'9330'
p282
I3134
sS'20089'
p283
I3004
sS'20088'
p284
I3003
sS'20087'
p285
I3002
sS'191'
p286
I17
sS'20085'
p287
I3000
sS'20084'
p288
I2999
sS'20083'
p289
I2998
sS'20082'
p290
I2997
sS'20081'
p291
I2996
sS'190'
p292
I16
sS'17759'
p293
I2132
sS'17758'
p294
I2131
sS'193'
p295
I19
sS'17751'
p296
I2124
sS'17750'
p297
I2123
sS'17753'
p298
I2126
sS'17222'
p299
I1919
sS'17755'
p300
I2128
sS'17754'
p301
I2127
sS'17757'
p302
I2130
sS'17756'
p303
I2129
sS'16936'
p304
I1795
sS'16937'
p305
I1796
sS'16934'
p306
I1793
sS'16935'
p307
I1794
sS'16932'
p308
I1791
sS'16933'
p309
I1792
sS'14899'
p310
I1054
sS'14898'
p311
I1053
sS'14897'
p312
I1052
sS'18499'
p313
I2386
sS'14895'
p314
I1050
sS'14894'
p315
I1049
sS'14893'
p316
I1048
sS'14892'
p317
I1047
sS'14891'
p318
I1046
sS'14890'
p319
I1045
sS'16757'
p320
I1778
sS'14651'
p321
I968
sS'14650'
p322
I967
sS'14653'
p323
I970
sS'14652'
p324
I969
sS'14655'
p325
I972
sS'14654'
p326
I971
sS'14657'
p327
I974
sS'14656'
p328
I973
sS'15700'
p329
I1369
sS'14658'
p330
I975
sS'15702'
p331
I1371
sS'15703'
p332
I1372
sS'15704'
p333
I1373
sS'15705'
p334
I1374
sS'15706'
p335
I1375
sS'15707'
p336
I1376
sS'13179'
p337
I468
sS'13178'
p338
I467
sS'16755'
p339
I1776
sS'15674'
p340
I1343
sS'15675'
p341
I1344
sS'15676'
p342
I1345
sS'15677'
p343
I1346
sS'15670'
p344
I1339
sS'15671'
p345
I1340
sS'15672'
p346
I1341
sS'15673'
p347
I1342
sS'15678'
p348
I1347
sS'15679'
p349
I1348
sS'20267'
p350
I3020
sS'18530'
p351
I2417
sS'20265'
p352
I3018
sS'20264'
p353
I3017
sS'20263'
p354
I3016
sS'20262'
p355
I3015
sS'20261'
p356
I3014
sS'13170'
p357
I459
sS'18532'
p358
I2419
sS'20269'
p359
I3022
sS'20268'
p360
I3021
sS'20065'
p361
I2980
sS'20064'
p362
I2979
sS'20067'
p363
I2982
sS'20066'
p364
I2981
sS'20061'
p365
I2976
sS'20060'
p366
I2975
sS'20063'
p367
I2978
sS'20062'
p368
I2977
sS'13175'
p369
I464
sS'20069'
p370
I2984
sS'20068'
p371
I2983
sS'18535'
p372
I2422
sS'13177'
p373
I466
sS'18537'
p374
I2424
sS'15906'
p375
I1413
sS'15907'
p376
I1414
sS'15452'
p377
I1283
sS'15905'
p378
I1412
sS'15454'
p379
I1285
sS'15455'
p380
I1286
sS'15456'
p381
I1287
sS'15457'
p382
I1288
sS'15458'
p383
I1289
sS'15459'
p384
I1290
sS'15908'
p385
I1415
sS'15909'
p386
I1416
sS'16242'
p387
I1587
sS'17258'
p388
I1955
sS'17259'
p389
I1956
sS'16243'
p390
I1588
sS'18768'
p391
I2493
sS'12921'
p392
I372
sS'19579'
p393
I2818
sS'19578'
p394
I2817
sS'13669'
p395
I634
sS'13668'
p396
I633
sS'19283'
p397
I2684
sS'19282'
p398
I2683
sS'19285'
p399
I2686
sS'19284'
p400
I2685
sS'19287'
p401
I2688
sS'19286'
p402
I2687
sS'13661'
p403
I626
sS'13660'
p404
I625
sS'13663'
p405
I628
sS'13662'
p406
I627
sS'13665'
p407
I630
sS'13664'
p408
I629
sS'13667'
p409
I632
sS'13666'
p410
I631
sS'19771'
p411
I2848
sS'19770'
p412
I2847
sS'19773'
p413
I2850
sS'19772'
p414
I2849
sS'19775'
p415
I2852
sS'19774'
p416
I2851
sS'19777'
p417
I2854
sS'19776'
p418
I2853
sS'19779'
p419
I2856
sS'19778'
p420
I2855
sS'16239'
p421
I1584
sS'16238'
p422
I1583
sS'16729'
p423
I1750
sS'16728'
p424
I1749
sS'20078'
p425
I2993
sS'16723'
p426
I1744
sS'16722'
p427
I1743
sS'16721'
p428
I1742
sS'16720'
p429
I1741
sS'16727'
p430
I1748
sS'16726'
p431
I1747
sS'16725'
p432
I1746
sS'16724'
p433
I1745
sS'13345'
p434
I472
sS'19264'
p435
I2665
sS'16502'
p436
I1685
sS'19825'
p437
I2902
sS'19824'
p438
I2901
sS'19827'
p439
I2904
sS'19826'
p440
I2903
sS'19821'
p441
I2898
sS'19820'
p442
I2897
sS'19823'
p443
I2900
sS'19822'
p444
I2899
sS'17526'
p445
I2061
sS'17527'
p446
I2062
sS'166'
p447
I0
sS'17525'
p448
I2060
sS'19829'
p449
I2906
sS'17523'
p450
I2058
sS'17520'
p451
I2055
sS'17521'
p452
I2056
sS'16740'
p453
I1761
sS'9289'
p454
I3096
sS'20090'
p455
I3005
sS'20091'
p456
I3006
sS'20092'
p457
I3007
sS'20093'
p458
I3008
sS'20094'
p459
I3009
sS'16743'
p460
I1764
sS'17748'
p461
I2121
sS'17749'
p462
I2122
sS'13180'
p463
I469
sS'13181'
p464
I470
sS'13182'
p465
I471
sS'17742'
p466
I2115
sS'17743'
p467
I2116
sS'17740'
p468
I2113
sS'17741'
p469
I2114
sS'17746'
p470
I2119
sS'17747'
p471
I2120
sS'17744'
p472
I2117
sS'17745'
p473
I2118
sS'14888'
p474
I1043
sS'14889'
p475
I1044
sS'14881'
p476
I1036
sS'14882'
p477
I1037
sS'14883'
p478
I1038
sS'14884'
p479
I1039
sS'14885'
p480
I1040
sS'14886'
p481
I1041
sS'14887'
p482
I1042
sS'14642'
p483
I959
sS'14643'
p484
I960
sS'14640'
p485
I957
sS'14641'
p486
I958
sS'18549'
p487
I2436
sS'18548'
p488
I2435
sS'14644'
p489
I961
sS'14645'
p490
I962
sS'18545'
p491
I2432
sS'18544'
p492
I2431
sS'14648'
p493
I965
sS'14649'
p494
I966
sS'18541'
p495
I2428
sS'18540'
p496
I2427
sS'18543'
p497
I2430
sS'18542'
p498
I2429
sS'9292'
p499
I3099
sS'9293'
p500
I3100
sS'9290'
p501
I3097
sS'9291'
p502
I3098
sS'9296'
p503
I3103
sS'9297'
p504
I3104
sS'9294'
p505
I3101
sS'9295'
p506
I3102
sS'9298'
p507
I3105
sS'9299'
p508
I3106
sS'18769'
p509
I2494
sS'12920'
p510
I371
sS'12923'
p511
I374
sS'12922'
p512
I373
sS'12925'
p513
I376
sS'12924'
p514
I375
sS'12926'
p515
I377
sS'18761'
p516
I2486
sS'18760'
p517
I2485
sS'18763'
p518
I2488
sS'18762'
p519
I2487
sS'18765'
p520
I2490
sS'18764'
p521
I2489
sS'18767'
p522
I2492
sS'18766'
p523
I2491
sS'20270'
p524
I3023
sS'20271'
p525
I3024
sS'20272'
p526
I3025
sS'20273'
p527
I3026
sS'20274'
p528
I3027
sS'20275'
p529
I3028
sS'20276'
p530
I3029
sS'20277'
p531
I3030
sS'20278'
p532
I3031
sS'20279'
p533
I3032
sS'20076'
p534
I2991
sS'20077'
p535
I2992
sS'20074'
p536
I2989
sS'20075'
p537
I2990
sS'20072'
p538
I2987
sS'20073'
p539
I2988
sS'20070'
p540
I2985
sS'20071'
p541
I2986
sS'17734'
p542
I2107
sS'20079'
p543
I2994
sS'15933'
p544
I1440
sS'15932'
p545
I1439
sS'15931'
p546
I1438
sS'15930'
p547
I1437
sS'15937'
p548
I1444
sS'15936'
p549
I1443
sS'15935'
p550
I1442
sS'15934'
p551
I1441
sS'15939'
p552
I1446
sS'15938'
p553
I1445
sS'18551'
p554
I2438
sS'17997'
p555
I2208
sS'17996'
p556
I2207
sS'17995'
p557
I2206
sS'17994'
p558
I2205
sS'17993'
p559
I2204
sS'17992'
p560
I2203
sS'17991'
p561
I2202
sS'17990'
p562
I2201
sS'14462'
p563
I941
sS'54'
p564
I64
sS'14460'
p565
I939
sS'56'
p566
I66
sS'51'
p567
I61
sS'50'
p568
I60
sS'53'
p569
I63
sS'19033'
p570
I2596
sS'55'
p571
I65
sS'19746'
p572
I2823
sS'19031'
p573
I2594
sS'57'
p574
I67
sS'19024'
p575
I2587
sS'16200'
p576
I1545
sS'14461'
p577
I940
sS'13857'
p578
I660
sS'16201'
p579
I1546
sS'13858'
p580
I661
sS'13859'
p581
I662
sS'19254'
p582
I2655
sS'12859'
p583
I310
sS'17724'
p584
I2097
sS'12589'
p585
I202
sS'16203'
p586
I1548
sS'17999'
p587
I2210
sS'9323'
p588
I3130
sS'12851'
p589
I302
sS'16756'
p590
I1777
sS'12853'
p591
I304
sS'12852'
p592
I303
sS'12855'
p593
I306
sS'12854'
p594
I305
sS'12857'
p595
I308
sS'16205'
p596
I1550
sS'9321'
p597
I3128
sS'207'
p598
I33
sS'17496'
p599
I2031
sS'9327'
p600
I3133
sS'209'
p601
I35
sS'9324'
p602
I3131
sS'208'
p603
I34
sS'9325'
p604
I3132
sS'19554'
p605
I2793
sS'19256'
p606
I2657
sS'19257'
p607
I2658
sS'19292'
p608
I2693
sS'19293'
p609
I2694
sS'13678'
p610
I643
sS'13679'
p611
I644
sS'19296'
p612
I2697
sS'19297'
p613
I2698
sS'19294'
p614
I2695
sS'19295'
p615
I2696
sS'13672'
p616
I637
sS'13673'
p617
I638
sS'19298'
p618
I2699
sS'13671'
p619
I636
sS'13676'
p620
I641
sS'13677'
p621
I642
sS'13674'
p622
I639
sS'13675'
p623
I640
sS'19762'
p624
I2839
sS'19763'
p625
I2840
sS'19760'
p626
I2837
sS'19761'
p627
I2838
sS'19766'
p628
I2843
sS'19767'
p629
I2844
sS'19764'
p630
I2841
sS'19765'
p631
I2842
sS'19768'
p632
I2845
sS'19769'
p633
I2846
sS'19255'
p634
I2656
sS'16734'
p635
I1755
sS'16735'
p636
I1756
sS'16736'
p637
I1757
sS'16737'
p638
I1758
sS'16730'
p639
I1751
sS'16731'
p640
I1752
sS'16732'
p641
I1753
sS'16733'
p642
I1754
sS'16738'
p643
I1759
sS'16739'
p644
I1760
sS'16228'
p645
I1573
sS'16229'
p646
I1574
sS'16222'
p647
I1567
sS'16223'
p648
I1568
sS'16220'
p649
I1565
sS'16221'
p650
I1566
sS'16226'
p651
I1571
sS'16227'
p652
I1572
sS'221'
p653
I47
sS'220'
p654
I46
sS'12858'
p655
I309
sS'13622'
p656
I587
sS'15434'
p657
I1265
sS'15435'
p658
I1266
sS'19253'
p659
I2654
sS'19307'
p660
I2708
sS'19582'
p661
I2821
sS'19580'
p662
I2819
sS'19581'
p663
I2820
sS'13628'
p664
I593
sS'19836'
p665
I2913
sS'19837'
p666
I2914
sS'19834'
p667
I2911
sS'19835'
p668
I2912
sS'19832'
p669
I2909
sS'19833'
p670
I2910
sS'19830'
p671
I2907
sS'12850'
p672
I301
sS'19250'
p673
I2651
sS'17512'
p674
I2047
sS'17511'
p675
I2046
sS'17510'
p676
I2045
sS'17517'
p677
I2052
sS'12581'
p678
I194
sS'19838'
p679
I2915
sS'17514'
p680
I2049
sS'12580'
p681
I193
sS'12587'
p682
I200
sS'14964'
p683
I1119
sS'12586'
p684
I199
sS'13915'
p685
I718
sS'19251'
p686
I2652
sS'17198'
p687
I1895
sS'17197'
p688
I1894
sS'17196'
p689
I1893
sS'17195'
p690
I1892
sS'12856'
p691
I307
sS'17193'
p692
I1890
sS'17192'
p693
I1889
sS'17191'
p694
I1888
sS'17190'
p695
I1887
sS'17777'
p696
I2150
sS'17776'
p697
I2149
sS'17775'
p698
I2148
sS'17774'
p699
I2147
sS'17773'
p700
I2146
sS'17772'
p701
I2145
sS'17771'
p702
I2144
sS'17770'
p703
I2143
sS'14628'
p704
I945
sS'17779'
p705
I2152
sS'17778'
p706
I2151
sS'20057'
p707
I2972
sS'14149'
p708
I790
sS'14148'
p709
I789
sS'16477'
p710
I1660
sS'14679'
p711
I996
sS'14678'
p712
I995
sS'14677'
p713
I994
sS'14676'
p714
I993
sS'14675'
p715
I992
sS'14674'
p716
I991
sS'14673'
p717
I990
sS'14672'
p718
I989
sS'14671'
p719
I988
sS'14670'
p720
I987
sS'16474'
p721
I1657
sS'16472'
p722
I1655
sS'13089'
p723
I378
sS'9288'
p724
I3095
sS'9285'
p725
I3092
sS'9284'
p726
I3091
sS'9287'
p727
I3094
sS'9286'
p728
I3093
sS'9281'
p729
I3088
sS'9280'
p730
I3087
sS'9283'
p731
I3090
sS'9282'
p732
I3089
sS'14129'
p733
I770
sS'14143'
p734
I784
sS'13156'
p735
I445
sS'14142'
p736
I783
sS'18778'
p737
I2503
sS'19275'
p738
I2676
sS'18772'
p739
I2497
sS'18773'
p740
I2498
sS'18770'
p741
I2495
sS'18771'
p742
I2496
sS'18776'
p743
I2501
sS'18777'
p744
I2502
sS'14128'
p745
I769
sS'18775'
p746
I2500
sS'20289'
p747
I3042
sS'20288'
p748
I3041
sS'20285'
p749
I3038
sS'20284'
p750
I3037
sS'20287'
p751
I3040
sS'20286'
p752
I3039
sS'20281'
p753
I3034
sS'20280'
p754
I3033
sS'20283'
p755
I3036
sS'20282'
p756
I3035
sS'20043'
p757
I2958
sS'20042'
p758
I2957
sS'20041'
p759
I2956
sS'20040'
p760
I2955
sS'20047'
p761
I2962
sS'20046'
p762
I2961
sS'20045'
p763
I2960
sS'20044'
p764
I2959
sS'14181'
p765
I822
sS'14180'
p766
I821
sS'20049'
p767
I2964
sS'20048'
p768
I2963
sS'14185'
p769
I826
sS'14184'
p770
I825
sS'14187'
p771
I828
sS'14186'
p772
I827
sS'13405'
p773
I532
sS'13404'
p774
I531
sS'15928'
p775
I1435
sS'15929'
p776
I1436
sS'15924'
p777
I1431
sS'15925'
p778
I1432
sS'15926'
p779
I1433
sS'15927'
p780
I1434
sS'15920'
p781
I1427
sS'15921'
p782
I1428
sS'15922'
p783
I1429
sS'15923'
p784
I1430
sS'14457'
p785
I936
sS'14456'
p786
I935
sS'14455'
p787
I934
sS'14454'
p788
I933
sS'14453'
p789
I932
sS'14452'
p790
I931
sS'14451'
p791
I930
sS'14450'
p792
I929
sS'14459'
p793
I938
sS'14458'
p794
I937
sS'14695'
p795
I1012
sS'14694'
p796
I1011
sS'14697'
p797
I1014
sS'14696'
p798
I1013
sS'14691'
p799
I1008
sS'14690'
p800
I1007
sS'14693'
p801
I1010
sS'18513'
p802
I2400
sS'17988'
p803
I2199
sS'17989'
p804
I2200
sS'14699'
p805
I1016
sS'18510'
p806
I2397
sS'13152'
p807
I441
sS'18511'
p808
I2398
sS'18516'
p809
I2403
sS'18517'
p810
I2404
sS'12594'
p811
I207
sS'12595'
p812
I208
sS'12596'
p813
I209
sS'12597'
p814
I210
sS'12590'
p815
I203
sS'13115'
p816
I404
sS'13869'
p817
I672
sS'13868'
p818
I671
sS'13867'
p819
I670
sS'13866'
p820
I669
sS'13865'
p821
I668
sS'18515'
p822
I2402
sS'13863'
p823
I666
sS'12599'
p824
I212
sS'13861'
p825
I664
sS'13860'
p826
I663
sS'12848'
p827
I299
sS'12849'
p828
I300
sS'12842'
p829
I293
sS'12843'
p830
I294
sS'12840'
p831
I291
sS'12841'
p832
I292
sS'12846'
p833
I297
sS'12847'
p834
I298
sS'12844'
p835
I295
sS'12845'
p836
I296
sS'18519'
p837
I2406
sS'17485'
p838
I2020
sS'15708'
p839
I1377
sS'15709'
p840
I1378
sS'13647'
p841
I612
sS'13646'
p842
I611
sS'13645'
p843
I610
sS'13644'
p844
I609
sS'13643'
p845
I608
sS'13642'
p846
I607
sS'13641'
p847
I606
sS'13640'
p848
I605
sS'13649'
p849
I614
sS'13648'
p850
I613
sS'13885'
p851
I688
sS'13884'
p852
I687
sS'13887'
p853
I690
sS'13886'
p854
I689
sS'13881'
p855
I684
sS'13880'
p856
I683
sS'13883'
p857
I686
sS'13882'
p858
I685
sS'19048'
p859
I2611
sS'13889'
p860
I692
sS'13888'
p861
I691
sS'14713'
p862
I1030
sS'19029'
p863
I2592
sS'19028'
p864
I2591
sS'19759'
p865
I2836
sS'19758'
p866
I2835
sS'19025'
p867
I2588
sS'19756'
p868
I2833
sS'19755'
p869
I2832
sS'19026'
p870
I2589
sS'19021'
p871
I2584
sS'19020'
p872
I2583
sS'19023'
p873
I2586
sS'19022'
p874
I2585
sS'16217'
p875
I1562
sS'19244'
p876
I2645
sS'16215'
p877
I1560
sS'19246'
p878
I2647
sS'19241'
p879
I2642
sS'16744'
p880
I1765
sS'16747'
p881
I1768
sS'19242'
p882
I2643
sS'16749'
p883
I1770
sS'16748'
p884
I1769
sS'19249'
p885
I2650
sS'19248'
p886
I2649
sS'16219'
p887
I1564
sS'16218'
p888
I1563
sS'15663'
p889
I1332
sS'19291'
p890
I2692
sS'17504'
p891
I2039
sS'17505'
p892
I2040
sS'17506'
p893
I2041
sS'17507'
p894
I2042
sS'17500'
p895
I2035
sS'17501'
p896
I2036
sS'17502'
p897
I2037
sS'17503'
p898
I2038
sS'19311'
p899
I2712
sS'17508'
p900
I2043
sS'17509'
p901
I2044
sS'19803'
p902
I2880
sS'19802'
p903
I2879
sS'19801'
p904
I2878
sS'19800'
p905
I2877
sS'19807'
p906
I2884
sS'19806'
p907
I2883
sS'19805'
p908
I2882
sS'19804'
p909
I2881
sS'19809'
p910
I2886
sS'19808'
p911
I2885
sS'16693'
p912
I1714
sS'16692'
p913
I1713
sS'16691'
p914
I1712
sS'16690'
p915
I1711
sS'16697'
p916
I1718
sS'16696'
p917
I1717
sS'16695'
p918
I1716
sS'16694'
p919
I1715
sS'19240'
p920
I2641
sS'16699'
p921
I1720
sS'16698'
p922
I1719
sS'13374'
p923
I501
sS'17188'
p924
I1885
sS'17189'
p925
I1886
sS'17185'
p926
I1882
sS'17186'
p927
I1883
sS'17187'
p928
I1884
sS'17760'
p929
I2133
sS'17761'
p930
I2134
sS'17762'
p931
I2135
sS'17763'
p932
I2136
sS'17764'
p933
I2137
sS'17765'
p934
I2138
sS'17766'
p935
I2139
sS'17767'
p936
I2140
sS'17768'
p937
I2141
sS'17769'
p938
I2142
sS'16969'
p939
I1828
sS'16968'
p940
I1827
sS'16961'
p941
I1820
sS'16960'
p942
I1819
sS'16963'
p943
I1822
sS'16962'
p944
I1821
sS'16965'
p945
I1824
sS'16964'
p946
I1823
sS'16967'
p947
I1826
sS'16966'
p948
I1825
sS'14668'
p949
I985
sS'14669'
p950
I986
sS'14124'
p951
I765
sS'14660'
p952
I977
sS'14661'
p953
I978
sS'14662'
p954
I979
sS'14663'
p955
I980
sS'14664'
p956
I981
sS'14665'
p957
I982
sS'14666'
p958
I983
sS'14667'
p959
I984
sS'17515'
p960
I2050
sS'13098'
p961
I387
sS'13099'
p962
I388
sS'13096'
p963
I385
sS'13097'
p964
I386
sS'13094'
p965
I383
sS'13095'
p966
I384
sS'13092'
p967
I381
sS'13093'
p968
I382
sS'13090'
p969
I379
sS'13091'
p970
I380
sS'18985'
p971
I2548
sS'15447'
p972
I1278
sS'18987'
p973
I2550
sS'18986'
p974
I2549
sS'18981'
p975
I2544
sS'18980'
p976
I2543
sS'18983'
p977
I2546
sS'18982'
p978
I2545
sS'12907'
p979
I358
sS'12906'
p980
I357
sS'12905'
p981
I356
sS'12904'
p982
I355
sS'18989'
p983
I2552
sS'18988'
p984
I2551
sS'12901'
p985
I352
sS'12900'
p986
I351
sS'15444'
p987
I1275
sS'20298'
p988
I3051
sS'20299'
p989
I3052
sS'14202'
p990
I843
sS'15911'
p991
I1418
sS'20294'
p992
I3047
sS'20295'
p993
I3048
sS'14206'
p994
I847
sS'20293'
p995
I3046
sS'14204'
p996
I845
sS'14205'
p997
I846
sS'14198'
p998
I839
sS'14199'
p999
I840
sS'20058'
p1000
I2973
sS'15913'
p1001
I1420
sS'14192'
p1002
I833
sS'20055'
p1003
I2970
sS'20056'
p1004
I2971
sS'15912'
p1005
I1419
sS'14196'
p1006
I837
sS'14197'
p1007
I838
sS'14194'
p1008
I835
sS'14195'
p1009
I836
sS'15959'
p1010
I1466
sS'15958'
p1011
I1465
sS'15483'
p1012
I1314
sS'15950'
p1013
I1457
sS'15953'
p1014
I1460
sS'15952'
p1015
I1459
sS'15951'
p1016
I1458
sS'15954'
p1017
I1461
sS'15957'
p1018
I1464
sS'15956'
p1019
I1463
sS'14440'
p1020
I919
sS'14441'
p1021
I920
sS'15139'
p1022
I1132
sS'15138'
p1023
I1131
sS'14444'
p1024
I923
sS'14445'
p1025
I924
sS'14446'
p1026
I925
sS'14447'
p1027
I926
sS'14448'
p1028
I927
sS'14449'
p1029
I928
sS'15448'
p1030
I1279
sS'15137'
p1031
I1130
sS'14686'
p1032
I1003
sS'14687'
p1033
I1004
sS'14684'
p1034
I1001
sS'14685'
p1035
I1002
sS'14682'
p1036
I999
sS'17978'
p1037
I2189
sS'14680'
p1038
I997
sS'14681'
p1039
I998
sS'17975'
p1040
I2186
sS'17974'
p1041
I2185
sS'17977'
p1042
I2188
sS'17976'
p1043
I2187
sS'17971'
p1044
I2182
sS'17970'
p1045
I2181
sS'17973'
p1046
I2184
sS'17972'
p1047
I2183
sS'18747'
p1048
I2472
sS'18746'
p1049
I2471
sS'18745'
p1050
I2470
sS'18744'
p1051
I2469
sS'18743'
p1052
I2468
sS'18742'
p1053
I2467
sS'18741'
p1054
I2466
sS'18740'
p1055
I2465
sS'13670'
p1056
I635
sS'18749'
p1057
I2474
sS'18748'
p1058
I2473
sS'13878'
p1059
I681
sS'13879'
p1060
I682
sS'12875'
p1061
I326
sS'19299'
p1062
I2700
sS'12873'
p1063
I324
sS'12872'
p1064
I323
sS'12871'
p1065
I322
sS'12870'
p1066
I321
sS'13870'
p1067
I673
sS'13871'
p1068
I674
sS'13872'
p1069
I675
sS'13873'
p1070
I676
sS'13874'
p1071
I677
sS'13875'
p1072
I678
sS'13876'
p1073
I679
sS'12878'
p1074
I329
sS'18280'
p1075
I2329
sS'18479'
p1076
I2366
sS'18478'
p1077
I2365
sS'14118'
p1078
I759
sS'14688'
p1079
I1005
sS'18476'
p1080
I2363
sS'14689'
p1081
I1006
sS'20080'
p1082
I2995
sS'17702'
p1083
I2075
sS'17703'
p1084
I2076
sS'19322'
p1085
I2723
sS'19323'
p1086
I2724
sS'19320'
p1087
I2721
sS'19321'
p1088
I2722
sS'19326'
p1089
I2727
sS'19324'
p1090
I2725
sS'19325'
p1091
I2726
sS'13650'
p1092
I615
sS'13651'
p1093
I616
sS'13652'
p1094
I617
sS'13653'
p1095
I618
sS'13654'
p1096
I619
sS'13655'
p1097
I620
sS'13656'
p1098
I621
sS'13657'
p1099
I622
sS'13658'
p1100
I623
sS'13659'
p1101
I624
sS'13896'
p1102
I699
sS'13897'
p1103
I700
sS'13894'
p1104
I697
sS'13895'
p1105
I698
sS'13892'
p1106
I695
sS'13893'
p1107
I696
sS'13890'
p1108
I693
sS'13891'
p1109
I694
sS'13898'
p1110
I701
sS'13899'
p1111
I702
sS'19748'
p1112
I2825
sS'19749'
p1113
I2826
sS'17708'
p1114
I2081
sS'19038'
p1115
I2601
sS'19039'
p1116
I2602
sS'19036'
p1117
I2599
sS'19037'
p1118
I2600
sS'19034'
p1119
I2597
sS'19035'
p1120
I2598
sS'19032'
p1121
I2595
sS'19745'
p1122
I2822
sS'19030'
p1123
I2593
sS'19747'
p1124
I2824
sS'201'
p1125
I27
sS'200'
p1126
I26
sS'203'
p1127
I29
sS'202'
p1128
I28
sS'205'
p1129
I31
sS'204'
p1130
I30
sS'16754'
p1131
I1775
sS'206'
p1132
I32
sS'16208'
p1133
I1553
sS'16209'
p1134
I1554
sS'16758'
p1135
I1779
sS'16759'
p1136
I1780
sS'13142'
p1137
I431
sS'19258'
p1138
I2659
sS'19259'
p1139
I2660
sS'13143'
p1140
I432
sS'13144'
p1141
I433
sS'13145'
p1142
I434
sS'13146'
p1143
I435
sS'13147'
p1144
I436
sS'18732'
p1145
I2457
sS'18288'
p1146
I2337
sS'12919'
p1147
I370
sS'13401'
p1148
I528
sS'13400'
p1149
I527
sS'13403'
p1150
I530
sS'13402'
p1151
I529
sS'19818'
p1152
I2895
sS'19819'
p1153
I2896
sS'13407'
p1154
I534
sS'13406'
p1155
I533
sS'13409'
p1156
I536
sS'13408'
p1157
I535
sS'19816'
p1158
I2893
sS'19817'
p1159
I2894
sS'19810'
p1160
I2887
sS'19811'
p1161
I2888
sS'19812'
p1162
I2889
sS'19813'
p1163
I2890
sS'18289'
p1164
I2338
sS'16688'
p1165
I1709
sS'16689'
p1166
I1710
sS'16684'
p1167
I1705
sS'16685'
p1168
I1706
sS'16686'
p1169
I1707
sS'16687'
p1170
I1708
sS'16680'
p1171
I1701
sS'16681'
p1172
I1702
sS'16682'
p1173
I1703
sS'16683'
p1174
I1704
sS'16224'
p1175
I1569
sS'16225'
p1176
I1570
sS'17790'
p1177
I2163
sS'16978'
p1178
I1837
sS'16979'
p1179
I1838
sS'14973'
p1180
I1128
sS'16972'
p1181
I1831
sS'16973'
p1182
I1832
sS'16970'
p1183
I1829
sS'16971'
p1184
I1830
sS'16976'
p1185
I1835
sS'16977'
p1186
I1836
sS'16974'
p1187
I1833
sS'16975'
p1188
I1834
sS'12836'
p1189
I287
sS'18996'
p1190
I2559
sS'19252'
p1191
I2653
sS'18997'
p1192
I2560
sS'14947'
p1193
I1102
sS'18995'
p1194
I2558
sS'14941'
p1195
I1096
sS'18993'
p1196
I2556
sS'18978'
p1197
I2541
sS'18979'
p1198
I2542
sS'18990'
p1199
I2553
sS'18991'
p1200
I2554
sS'18977'
p1201
I2540
sS'12918'
p1202
I369
sS'14944'
p1203
I1099
sS'18994'
p1204
I2557
sS'14946'
p1205
I1101
sS'18992'
p1206
I2555
sS'14940'
p1207
I1095
sS'14943'
p1208
I1098
sS'14942'
p1209
I1097
sS'12910'
p1210
I361
sS'12911'
p1211
I362
sS'12912'
p1212
I363
sS'12913'
p1213
I364
sS'14949'
p1214
I1104
sS'14948'
p1215
I1103
sS'18998'
p1216
I2561
sS'12915'
p1217
I366
sS'12916'
p1218
I367
sS'18999'
p1219
I2562
sS'14692'
p1220
I1009
sS'20029'
p1221
I2944
sS'20028'
p1222
I2943
sS'20021'
p1223
I2936
sS'20020'
p1224
I2935
sS'20023'
p1225
I2938
sS'20022'
p1226
I2937
sS'20025'
p1227
I2940
sS'20024'
p1228
I2939
sS'20027'
p1229
I2942
sS'20026'
p1230
I2941
sS'13135'
p1231
I424
sS'13134'
p1232
I423
sS'13137'
p1233
I426
sS'13136'
p1234
I425
sS'13131'
p1235
I420
sS'13130'
p1236
I419
sS'13133'
p1237
I422
sS'13132'
p1238
I421
sS'13139'
p1239
I428
sS'13138'
p1240
I427
sS'15948'
p1241
I1455
sS'15949'
p1242
I1456
sS'15942'
p1243
I1449
sS'15943'
p1244
I1450
sS'15940'
p1245
I1447
sS'15941'
p1246
I1448
sS'15946'
p1247
I1453
sS'15947'
p1248
I1454
sS'15944'
p1249
I1451
sS'15945'
p1250
I1452
sS'61'
p1251
I68
sS'65'
p1252
I69
sS'66'
p1253
I70
sS'67'
p1254
I71
sS'68'
p1255
I72
sS'69'
p1256
I73
sS'17968'
p1257
I2179
sS'17969'
p1258
I2180
sS'17966'
p1259
I2177
sS'17967'
p1260
I2178
sS'17964'
p1261
I2175
sS'17965'
p1262
I2176
sS'17962'
p1263
I2173
sS'17963'
p1264
I2174
sS'17960'
p1265
I2171
sS'17961'
p1266
I2172
sS'18750'
p1267
I2475
sS'18751'
p1268
I2476
sS'18752'
p1269
I2477
sS'18753'
p1270
I2478
sS'18754'
p1271
I2479
sS'18755'
p1272
I2480
sS'18756'
p1273
I2481
sS'18757'
p1274
I2482
sS'18758'
p1275
I2483
sS'18759'
p1276
I2484
sS'12860'
p1277
I311
sS'12861'
p1278
I312
sS'12862'
p1279
I313
sS'12863'
p1280
I314
sS'12864'
p1281
I315
sS'12865'
p1282
I316
sS'12866'
p1283
I317
sS'12867'
p1284
I318
sS'12868'
p1285
I319
sS'12869'
p1286
I320
sS'12914'
p1287
I365
sS'13162'
p1288
I451
sS'17519'
p1289
I2054
sS'17518'
p1290
I2053
sS'19831'
p1291
I2908
sS'16451'
p1292
I1634
sS'13160'
p1293
I449
sS'16982'
p1294
I1841
sS'16453'
p1295
I1636
sS'16980'
p1296
I1839
sS'13127'
p1297
I416
sS'16455'
p1298
I1638
sS'12917'
p1299
I368
sS'16454'
p1300
I1637
sS'16985'
p1301
I1844
sS'16456'
p1302
I1639
sS'14936'
p1303
I1091
sS'14937'
p1304
I1092
sS'19489'
p1305
I2728
sS'14938'
p1306
I1093
sS'18276'
p1307
I2325
sS'19009'
p1308
I2572
sS'19008'
p1309
I2571
sS'19003'
p1310
I2566
sS'19002'
p1311
I2565
sS'19001'
p1312
I2564
sS'19000'
p1313
I2563
sS'19007'
p1314
I2570
sS'19006'
p1315
I2569
sS'19005'
p1316
I2568
sS'19004'
p1317
I2567
sS'19263'
p1318
I2664
sS'19262'
p1319
I2663
sS'19261'
p1320
I2662
sS'19260'
p1321
I2661
sS'19267'
p1322
I2668
sS'19266'
p1323
I2667
sS'19265'
p1324
I2666
sS'211'
p1325
I37
sS'16766'
p1326
I1787
sS'19269'
p1327
I2670
sS'19268'
p1328
I2669
sS'16763'
p1329
I1784
sS'16762'
p1330
I1783
sS'16761'
p1331
I1782
sS'219'
p1332
I45
sS'19793'
p1333
I2870
sS'19792'
p1334
I2869
sS'19791'
p1335
I2868
sS'19790'
p1336
I2867
sS'19797'
p1337
I2874
sS'19796'
p1338
I2873
sS'19795'
p1339
I2872
sS'19794'
p1340
I2871
sS'19799'
p1341
I2876
sS'19798'
p1342
I2875
sS'13165'
p1343
I454
sS'12670'
p1344
I283
sS'19317'
p1345
I2718
sS'19316'
p1346
I2717
sS'19315'
p1347
I2716
sS'19314'
p1348
I2715
sS'19313'
p1349
I2714
sS'19312'
p1350
I2713
sS'16167'
p1351
I1512
sS'19310'
p1352
I2711
sS'16169'
p1353
I1514
sS'16168'
p1354
I1513
sS'13124'
p1355
I413
sS'19319'
p1356
I2720
sS'19318'
p1357
I2719
sS'19061'
p1358
I2624
sS'17212'
p1359
I1909
sS'19060'
p1360
I2623
sS'19063'
p1361
I2626
sS'13412'
p1362
I539
sS'13413'
p1363
I540
sS'13410'
p1364
I537
sS'13411'
p1365
I538
sS'13416'
p1366
I543
sS'13417'
p1367
I544
sS'13414'
p1368
I541
sS'13415'
p1369
I542
sS'19065'
p1370
I2628
sS'13418'
p1371
I545
sS'13419'
p1372
I546
sS'19064'
p1373
I2627
sS'17194'
p1374
I1891
sS'19067'
p1375
I2630
sS'19066'
p1376
I2629
sS'15649'
p1377
I1318
sS'18290'
p1378
I2339
sS'17788'
p1379
I2161
sS'17789'
p1380
I2162
sS'17786'
p1381
I2159
sS'17787'
p1382
I2160
sS'17784'
p1383
I2157
sS'17785'
p1384
I2158
sS'17782'
p1385
I2155
sS'17783'
p1386
I2156
sS'17780'
p1387
I2153
sS'17781'
p1388
I2154
sS'16947'
p1389
I1806
sS'16946'
p1390
I1805
sS'16945'
p1391
I1804
sS'16944'
p1392
I1803
sS'16943'
p1393
I1802
sS'16942'
p1394
I1801
sS'16941'
p1395
I1800
sS'16940'
p1396
I1799
sS'16419'
p1397
I1602
sS'16418'
p1398
I1601
sS'16949'
p1399
I1808
sS'16948'
p1400
I1807
sS'19015'
p1401
I2578
sS'14175'
p1402
I816
sS'20292'
p1403
I3045
sS'12323'
p1404
I98
sS'12322'
p1405
I97
sS'12321'
p1406
I96
sS'12327'
p1407
I102
sS'12326'
p1408
I101
sS'12325'
p1409
I100
sS'12324'
p1410
I99
sS'12329'
p1411
I104
sS'12328'
p1412
I103
sS'13944'
p1413
I747
sS'14956'
p1414
I1111
sS'14957'
p1415
I1112
sS'14176'
p1416
I817
sS'14955'
p1417
I1110
sS'18219'
p1418
I2268
sS'18218'
p1419
I2267
sS'14950'
p1420
I1105
sS'14951'
p1421
I1106
sS'18215'
p1422
I2264
sS'18214'
p1423
I2263
sS'18217'
p1424
I2266
sS'18216'
p1425
I2265
sS'18211'
p1426
I2260
sS'18210'
p1427
I2259
sS'18213'
p1428
I2262
sS'18212'
p1429
I2261
sS'14629'
p1430
I946
sS'13945'
p1431
I748
sS'14177'
p1432
I818
sS'20038'
p1433
I2953
sS'20039'
p1434
I2954
sS'20032'
p1435
I2947
sS'20033'
p1436
I2948
sS'20030'
p1437
I2945
sS'20031'
p1438
I2946
sS'20036'
p1439
I2951
sS'20037'
p1440
I2952
sS'20034'
p1441
I2949
sS'20035'
p1442
I2950
sS'18501'
p1443
I2388
sS'18500'
p1444
I2387
sS'18503'
p1445
I2390
sS'18502'
p1446
I2389
sS'18505'
p1447
I2392
sS'18504'
p1448
I2391
sS'18507'
p1449
I2394
sS'18506'
p1450
I2393
sS'18509'
p1451
I2396
sS'18508'
p1452
I2395
sS'13128'
p1453
I417
sS'13129'
p1454
I418
sS'15151'
p1455
I1144
sS'15150'
p1456
I1143
sS'15153'
p1457
I1146
sS'15152'
p1458
I1145
sS'15155'
p1459
I1148
sS'15154'
p1460
I1147
sS'15157'
p1461
I1150
sS'15156'
p1462
I1149
sS'15159'
p1463
I1152
sS'15158'
p1464
I1151
sS'13153'
p1465
I442
sS'15439'
p1466
I1270
sS'17959'
p1467
I2170
sS'17958'
p1468
I2169
sS'17953'
p1469
I2164
sS'17957'
p1470
I2168
sS'17956'
p1471
I2167
sS'17955'
p1472
I2166
sS'17954'
p1473
I2165
sS'14172'
p1474
I813
sS'12899'
p1475
I350
sS'12898'
p1476
I349
sS'12895'
p1477
I346
sS'12894'
p1478
I345
sS'12897'
p1479
I348
sS'12896'
p1480
I347
sS'12891'
p1481
I342
sS'12890'
p1482
I341
sS'12893'
p1483
I344
sS'12892'
p1484
I343
sS'18035'
p1485
I2246
sS'18034'
p1486
I2245
sS'18037'
p1487
I2248
sS'18036'
p1488
I2247
sS'18031'
p1489
I2242
sS'18030'
p1490
I2241
sS'18033'
p1491
I2244
sS'18032'
p1492
I2243
sS'18039'
p1493
I2250
sS'18038'
p1494
I2249
sS'20086'
p1495
I3001
sS'15977'
p1496
I1484
sS'15976'
p1497
I1483
sS'15975'
p1498
I1482
sS'15974'
p1499
I1481
sS'15973'
p1500
I1480
sS'15972'
p1501
I1479
sS'15971'
p1502
I1478
sS'15970'
p1503
I1477
sS'14954'
p1504
I1109
sS'15979'
p1505
I1486
sS'15978'
p1506
I1485
sS'12902'
p1507
I353
sS'12411'
p1508
I186
sS'12410'
p1509
I185
sS'12413'
p1510
I188
sS'12412'
p1511
I187
sS'12414'
p1512
I189
sS'13614'
p1513
I579
sS'14952'
p1514
I1107
sS'19490'
p1515
I2729
sS'19491'
p1516
I2730
sS'19492'
p1517
I2731
sS'19493'
p1518
I2732
sS'19494'
p1519
I2733
sS'19495'
p1520
I2734
sS'19496'
p1521
I2735
sS'19497'
p1522
I2736
sS'19498'
p1523
I2737
sS'19499'
p1524
I2738
sS'14918'
p1525
I1073
sS'13611'
p1526
I576
sS'15393'
p1527
I1224
sS'14919'
p1528
I1074
sS'14953'
p1529
I1108
sS'18493'
p1530
I2380
sS'18492'
p1531
I2379
sS'19014'
p1532
I2577
sS'15204'
p1533
I1197
sS'19016'
p1534
I2579
sS'19017'
p1535
I2580
sS'19010'
p1536
I2573
sS'19011'
p1537
I2574
sS'19012'
p1538
I2575
sS'15202'
p1539
I1195
sS'15397'
p1540
I1228
sS'14173'
p1541
I814
sS'19018'
p1542
I2581
sS'15208'
p1543
I1201
sS'15396'
p1544
I1227
sS'18556'
p1545
I2443
sS'15395'
p1546
I1226
sS'18557'
p1547
I2444
sS'15394'
p1548
I1225
sS'18554'
p1549
I2441
sS'18555'
p1550
I2442
sS'19278'
p1551
I2679
sS'19279'
p1552
I2680
sS'17982'
p1553
I2193
sS'19274'
p1554
I2675
sS'14916'
p1555
I1071
sS'19276'
p1556
I2677
sS'19277'
p1557
I2678
sS'19270'
p1558
I2671
sS'19271'
p1559
I2672
sS'19272'
p1560
I2673
sS'14917'
p1561
I1072
sS'19788'
p1562
I2865
sS'19789'
p1563
I2866
sS'19784'
p1564
I2861
sS'19785'
p1565
I2862
sS'19786'
p1566
I2863
sS'19787'
p1567
I2864
sS'19780'
p1568
I2857
sS'19781'
p1569
I2858
sS'19782'
p1570
I2859
sS'19783'
p1571
I2860
sS'12668'
p1572
I281
sS'12669'
p1573
I282
sS'12666'
p1574
I279
sS'12667'
p1575
I280
sS'12664'
p1576
I277
sS'12665'
p1577
I278
sS'12662'
p1578
I275
sS'12663'
p1579
I276
sS'12660'
p1580
I273
sS'12661'
p1581
I274
sS'16172'
p1582
I1517
sS'16173'
p1583
I1518
sS'16170'
p1584
I1515
sS'16171'
p1585
I1516
sS'16176'
p1586
I1521
sS'16177'
p1587
I1522
sS'16174'
p1588
I1519
sS'16175'
p1589
I1520
sS'19308'
p1590
I2709
sS'19309'
p1591
I2710
sS'16178'
p1592
I1523
sS'16179'
p1593
I1524
sS'199'
p1594
I25
sS'198'
p1595
I24
sS'17225'
p1596
I1922
sS'17224'
p1597
I1921
sS'197'
p1598
I23
sS'196'
p1599
I22
sS'17221'
p1600
I1918
sS'17220'
p1601
I1917
sS'17223'
p1602
I1920
sS'192'
p1603
I18
sS'13429'
p1604
I556
sS'13428'
p1605
I555
sS'13427'
p1606
I554
sS'13426'
p1607
I553
sS'13425'
p1608
I552
sS'13424'
p1609
I551
sS'13423'
p1610
I550
sS'13422'
p1611
I549
sS'13421'
p1612
I548
sS'13420'
p1613
I547
sS'17238'
p1614
I1935
sS'17239'
p1615
I1936
sS'19519'
p1616
I2758
sS'19518'
p1617
I2757
sS'16950'
p1618
I1809
sS'16951'
p1619
I1810
sS'16952'
p1620
I1811
sS'16953'
p1621
I1812
sS'16954'
p1622
I1813
sS'16955'
p1623
I1814
sS'16956'
p1624
I1815
sS'16957'
p1625
I1816
sS'16958'
p1626
I1817
sS'16959'
p1627
I1818
sS'16244'
p1628
I1589
sS'17513'
p1629
I2048
sS'13431'
p1630
I558
sS'16246'
p1631
I1591
sS'14958'
p1632
I1113
sS'16247'
p1633
I1592
sS'16240'
p1634
I1585
sS'16241'
p1635
I1586
sS'12338'
p1636
I113
sS'12339'
p1637
I114
sS'12334'
p1638
I109
sS'12335'
p1639
I110
sS'12336'
p1640
I111
sS'12337'
p1641
I112
sS'12330'
p1642
I105
sS'12331'
p1643
I106
sS'12332'
p1644
I107
sS'12333'
p1645
I108
sS'14963'
p1646
I1118
sS'14962'
p1647
I1117
sS'14961'
p1648
I1116
sS'14960'
p1649
I1115
sS'14967'
p1650
I1122
sS'14966'
p1651
I1121
sS'14965'
p1652
I1120
sS'18209'
p1653
I2258
sS'14969'
p1654
I1124
sS'14968'
p1655
I1123
sS'20007'
p1656
I2922
sS'20006'
p1657
I2921
sS'20005'
p1658
I2920
sS'20004'
p1659
I2919
sS'20003'
p1660
I2918
sS'20002'
p1661
I2917
sS'20001'
p1662
I2916
sS'13163'
p1663
I452
sS'14145'
p1664
I786
sS'14144'
p1665
I785
sS'14147'
p1666
I788
sS'14146'
p1667
I787
sS'14141'
p1668
I782
sS'14140'
p1669
I781
sS'20009'
p1670
I2924
sS'20008'
p1671
I2923
sS'13161'
p1672
I450
sS'13113'
p1673
I402
sS'13112'
p1674
I401
sS'13111'
p1675
I400
sS'13110'
p1676
I399
sS'13117'
p1677
I406
sS'13116'
p1678
I405
sS'18514'
p1679
I2401
sS'13114'
p1680
I403
sS'13119'
p1681
I408
sS'13118'
p1682
I407
sS'15142'
p1683
I1135
sS'15143'
p1684
I1136
sS'15140'
p1685
I1133
sS'15141'
p1686
I1134
sS'15146'
p1687
I1139
sS'15147'
p1688
I1140
sS'15144'
p1689
I1137
sS'15145'
p1690
I1138
sS'15148'
p1691
I1141
sS'15149'
p1692
I1142
sS'14369'
p1693
I848
sS'18779'
p1694
I2504
sS'17516'
p1695
I2051
sS'12888'
p1696
I339
sS'12889'
p1697
I340
sS'12886'
p1698
I337
sS'12887'
p1699
I338
sS'12884'
p1700
I335
sS'12885'
p1701
I336
sS'12882'
p1702
I333
sS'12883'
p1703
I334
sS'12880'
p1704
I331
sS'12881'
p1705
I332
sS'18026'
p1706
I2237
sS'18027'
p1707
I2238
sS'18024'
p1708
I2235
sS'18025'
p1709
I2236
sS'18022'
p1710
I2233
sS'18023'
p1711
I2234
sS'18020'
p1712
I2231
sS'18021'
p1713
I2232
sS'18028'
p1714
I2239
sS'18029'
p1715
I2240
sS'14945'
p1716
I1100
sS'15960'
p1717
I1467
sS'15961'
p1718
I1468
sS'15962'
p1719
I1469
sS'15963'
p1720
I1470
sS'15964'
p1721
I1471
sS'15965'
p1722
I1472
sS'15966'
p1723
I1473
sS'15967'
p1724
I1474
sS'15968'
p1725
I1475
sS'15969'
p1726
I1476
sS'17985'
p1727
I2196
sS'13939'
p1728
I742
sS'13938'
p1729
I741
sS'13935'
p1730
I738
sS'13934'
p1731
I737
sS'13937'
p1732
I740
sS'13936'
p1733
I739
sS'13931'
p1734
I734
sS'13930'
p1735
I733
sS'13933'
p1736
I736
sS'13932'
p1737
I735
sS'12408'
p1738
I183
sS'12409'
p1739
I184
sS'12402'
p1740
I177
sS'12403'
p1741
I178
sS'12400'
p1742
I175
sS'12401'
p1743
I176
sS'12406'
p1744
I181
sS'12407'
p1745
I182
sS'12404'
p1746
I179
sS'12405'
p1747
I180
sS'14189'
p1748
I830
sS'13624'
p1749
I589
sS'13141'
p1750
I430
sS'14188'
p1751
I829
sS'13689'
p1752
I654
sS'13688'
p1753
I653
sS'13683'
p1754
I648
sS'13682'
p1755
I647
sS'13681'
p1756
I646
sS'13680'
p1757
I645
sS'13687'
p1758
I652
sS'13686'
p1759
I651
sS'13685'
p1760
I650
sS'13684'
p1761
I649
sS'15216'
p1762
I1209
sS'15217'
p1763
I1210
sS'15214'
p1764
I1207
sS'15215'
p1765
I1208
sS'15212'
p1766
I1205
sS'15213'
p1767
I1206
sS'15210'
p1768
I1203
sS'15211'
p1769
I1204
sS'19069'
p1770
I2632
sS'19068'
p1771
I2631
sS'15218'
p1772
I1211
sS'15219'
p1773
I1212
sS'14183'
p1774
I824
sS'14182'
p1775
I823
sS'12659'
p1776
I272
sS'12658'
p1777
I271
sS'12653'
p1778
I266
sS'12652'
p1779
I265
sS'12651'
p1780
I264
sS'12650'
p1781
I263
sS'12657'
p1782
I270
sS'12656'
p1783
I269
sS'12655'
p1784
I268
sS'12654'
p1785
I267
sS'170'
p1786
I2
sS'19515'
p1787
I2754
sS'19514'
p1788
I2753
sS'19517'
p1789
I2756
sS'19516'
p1790
I2755
sS'19511'
p1791
I2750
sS'19510'
p1792
I2749
sS'19513'
p1793
I2752
sS'19512'
p1794
I2751
sS'17236'
p1795
I1933
sS'17237'
p1796
I1934
sS'17234'
p1797
I1931
sS'17235'
p1798
I1932
sS'17232'
p1799
I1929
sS'17233'
p1800
I1930
sS'17230'
p1801
I1927
sS'17231'
p1802
I1928
sS'13438'
p1803
I565
sS'13430'
p1804
I557
sS'19753'
p1805
I2830
sS'13432'
p1806
I559
sS'13433'
p1807
I560
sS'13434'
p1808
I561
sS'13435'
p1809
I562
sS'13436'
p1810
I563
sS'13437'
p1811
I564
sS'16765'
p1812
I1786
sS'16433'
p1813
I1616
sS'16432'
p1814
I1615
sS'16431'
p1815
I1614
sS'16430'
p1816
I1613
sS'16437'
p1817
I1620
sS'16436'
p1818
I1619
sS'16435'
p1819
I1618
sS'16434'
p1820
I1617
sS'16439'
p1821
I1622
sS'16438'
p1822
I1621
sS'12605'
p1823
I218
sS'182'
p1824
I8
sS'183'
p1825
I9
sS'180'
p1826
I6
sS'181'
p1827
I7
sS'186'
p1828
I12
sS'187'
p1829
I13
sS'184'
p1830
I10
sS'185'
p1831
I11
sS'188'
p1832
I14
sS'189'
p1833
I15
sS'17199'
p1834
I1896
sS'12349'
p1835
I124
sS'12348'
p1836
I123
sS'12341'
p1837
I116
sS'12340'
p1838
I115
sS'12343'
p1839
I118
sS'12342'
p1840
I117
sS'12345'
p1841
I120
sS'12344'
p1842
I119
sS'12347'
p1843
I122
sS'12346'
p1844
I121
sS'18239'
p1845
I2288
sS'18238'
p1846
I2287
sS'14974'
p1847
I1129
sS'18232'
p1848
I2281
sS'18231'
p1849
I2280
sS'18230'
p1850
I2279
sS'14970'
p1851
I1125
sS'14971'
p1852
I1126
sS'14972'
p1853
I1127
sS'18234'
p1854
I2283
sS'20010'
p1855
I2925
sS'20011'
p1856
I2926
sS'20012'
p1857
I2927
sS'20013'
p1858
I2928
sS'15915'
p1859
I1422
sS'20015'
p1860
I2930
sS'20016'
p1861
I2931
sS'20017'
p1862
I2932
sS'20018'
p1863
I2933
sS'20019'
p1864
I2934
sS'14154'
p1865
I795
sS'14155'
p1866
I796
sS'14152'
p1867
I793
sS'14153'
p1868
I794
sS'14150'
p1869
I791
sS'14151'
p1870
I792
sS'15914'
p1871
I1421
sS'13108'
p1872
I397
sS'13109'
p1873
I398
sS'18529'
p1874
I2416
sS'18528'
p1875
I2415
sS'13104'
p1876
I393
sS'13105'
p1877
I394
sS'13106'
p1878
I395
sS'13107'
p1879
I396
sS'13100'
p1880
I389
sS'13101'
p1881
I390
sS'13102'
p1882
I391
sS'13103'
p1883
I392
sS'17980'
p1884
I2191
sS'18302'
p1885
I2351
sS'15179'
p1886
I1172
sS'15178'
p1887
I1171
sS'15177'
p1888
I1170
sS'15176'
p1889
I1169
sS'15175'
p1890
I1168
sS'15174'
p1891
I1167
sS'15173'
p1892
I1166
sS'15172'
p1893
I1165
sS'15171'
p1894
I1164
sS'15170'
p1895
I1163
sS'77'
p1896
I81
sS'76'
p1897
I80
sS'75'
p1898
I79
sS'74'
p1899
I78
sS'73'
p1900
I77
sS'72'
p1901
I76
sS'71'
p1902
I75
sS'70'
p1903
I74
sS'14372'
p1904
I851
sS'14373'
p1905
I852
sS'14370'
p1906
I849
sS'14371'
p1907
I850
sS'14376'
p1908
I855
sS'14377'
p1909
I856
sS'79'
p1910
I83
sS'78'
p1911
I82
sS'17986'
p1912
I2197
sS'20304'
p1913
I3057
sS'20305'
p1914
I3058
sS'20306'
p1915
I3059
sS'20307'
p1916
I3060
sS'20300'
p1917
I3053
sS'20301'
p1918
I3054
sS'20302'
p1919
I3055
sS'20303'
p1920
I3056
sS'18789'
p1921
I2514
sS'18788'
p1922
I2513
sS'18783'
p1923
I2508
sS'18782'
p1924
I2507
sS'18781'
p1925
I2506
sS'18780'
p1926
I2505
sS'18787'
p1927
I2512
sS'18786'
p1928
I2511
sS'18785'
p1929
I2510
sS'18784'
p1930
I2509
sS'216'
p1931
I42
sS'217'
p1932
I43
sS'18237'
p1933
I2286
sS'214'
p1934
I40
sS'14698'
p1935
I1015
sS'18013'
p1936
I2224
sS'18012'
p1937
I2223
sS'18011'
p1938
I2222
sS'18010'
p1939
I2221
sS'18017'
p1940
I2228
sS'18016'
p1941
I2227
sS'18015'
p1942
I2226
sS'18014'
p1943
I2225
sS'212'
p1944
I38
sS'18019'
p1945
I2230
sS'18018'
p1946
I2229
sS'213'
p1947
I39
sS'15689'
p1948
I1358
sS'15688'
p1949
I1357
sS'17752'
p1950
I2125
sS'210'
p1951
I36
sS'15681'
p1952
I1350
sS'15680'
p1953
I1349
sS'15910'
p1954
I1417
sS'15682'
p1955
I1351
sS'15685'
p1956
I1354
sS'15684'
p1957
I1353
sS'15687'
p1958
I1356
sS'15686'
p1959
I1355
sS'15998'
p1960
I1505
sS'15995'
p1961
I1502
sS'15994'
p1962
I1501
sS'15997'
p1963
I1504
sS'15996'
p1964
I1503
sS'15991'
p1965
I1498
sS'15990'
p1966
I1497
sS'15993'
p1967
I1500
sS'15992'
p1968
I1499
sS'16764'
p1969
I1785
sS'18235'
p1970
I2284
sS'14380'
p1971
I859
sS'19547'
p1972
I2786
sS'15425'
p1973
I1256
sS'15424'
p1974
I1255
sS'15427'
p1975
I1258
sS'15426'
p1976
I1257
sS'15421'
p1977
I1252
sS'15420'
p1978
I1251
sS'15423'
p1979
I1254
sS'15422'
p1980
I1253
sS'13926'
p1981
I729
sS'13927'
p1982
I730
sS'13924'
p1983
I727
sS'16760'
p1984
I1781
sS'15429'
p1985
I1260
sS'15428'
p1986
I1259
sS'13920'
p1987
I723
sS'13921'
p1988
I724
sS'15195'
p1989
I1188
sS'15194'
p1990
I1187
sS'15197'
p1991
I1190
sS'15196'
p1992
I1189
sS'15191'
p1993
I1184
sS'15190'
p1994
I1183
sS'15193'
p1995
I1186
sS'15192'
p1996
I1185
sS'16931'
p1997
I1790
sS'15199'
p1998
I1192
sS'15198'
p1999
I1191
sS'14896'
p2000
I1051
sS'13694'
p2001
I659
sS'13690'
p2002
I655
sS'13691'
p2003
I656
sS'13692'
p2004
I657
sS'13693'
p2005
I658
sS'16938'
p2006
I1797
sS'16939'
p2007
I1798
sS'12591'
p2008
I204
sS'15223'
p2009
I1216
sS'15222'
p2010
I1215
sS'19070'
p2011
I2633
sS'15220'
p2012
I1213
sS'15227'
p2013
I1220
sS'15226'
p2014
I1219
sS'15225'
p2015
I1218
sS'15224'
p2016
I1217
sS'15229'
p2017
I1222
sS'12593'
p2018
I206
sS'12583'
p2019
I196
sS'13864'
p2020
I667
sS'12598'
p2021
I211
sS'13862'
p2022
I665
sS'12644'
p2023
I257
sS'12645'
p2024
I258
sS'12646'
p2025
I259
sS'12647'
p2026
I260
sS'12640'
p2027
I253
sS'12641'
p2028
I254
sS'12642'
p2029
I255
sS'12643'
p2030
I256
sS'12648'
p2031
I261
sS'12649'
p2032
I262
sS'19506'
p2033
I2745
sS'19507'
p2034
I2746
sS'19504'
p2035
I2743
sS'19505'
p2036
I2744
sS'19502'
p2037
I2741
sS'19503'
p2038
I2742
sS'19500'
p2039
I2739
sS'19501'
p2040
I2740
sS'17203'
p2041
I1900
sS'17202'
p2042
I1899
sS'17201'
p2043
I1898
sS'17200'
p2044
I1897
sS'17207'
p2045
I1904
sS'17206'
p2046
I1903
sS'19508'
p2047
I2747
sS'19509'
p2048
I2748
sS'16161'
p2049
I1506
sS'16163'
p2050
I1508
sS'14659'
p2051
I976
sS'16162'
p2052
I1507
sS'15701'
p2053
I1370
sS'16165'
p2054
I1510
sS'19290'
p2055
I2691
sS'16164'
p2056
I1509
sS'17441'
p2057
I1976
sS'17443'
p2058
I1978
sS'17442'
p2059
I1977
sS'17445'
p2060
I1980
sS'17444'
p2061
I1979
sS'17447'
p2062
I1982
sS'17446'
p2063
I1981
sS'17449'
p2064
I1984
sS'17448'
p2065
I1983
sS'16166'
p2066
I1511
sS'18236'
p2067
I2285
sS'13351'
p2068
I478
sS'13350'
p2069
I477
sS'13353'
p2070
I480
sS'13352'
p2071
I479
sS'16428'
p2072
I1611
sS'16429'
p2073
I1612
sS'13357'
p2074
I484
sS'13356'
p2075
I483
sS'13359'
p2076
I486
sS'16425'
p2077
I1608
sS'16426'
p2078
I1609
sS'16427'
p2079
I1610
sS'16420'
p2080
I1603
sS'16421'
p2081
I1604
sS'16422'
p2082
I1605
sS'16423'
p2083
I1606
sS'12588'
p2084
I201
sS'20014'
p2085
I2929
sS'14158'
p2086
I799
sS'14159'
p2087
I800
sS'14156'
p2088
I797
sS'14157'
p2089
I798
sS'12358'
p2090
I133
sS'12359'
p2091
I134
sS'12352'
p2092
I127
sS'12353'
p2093
I128
sS'12350'
p2094
I125
sS'12351'
p2095
I126
sS'12356'
p2096
I131
sS'12357'
p2097
I132
sS'12354'
p2098
I129
sS'12355'
p2099
I130
sS'14909'
p2100
I1064
sS'14908'
p2101
I1063
sS'14901'
p2102
I1056
sS'14900'
p2103
I1055
sS'14903'
p2104
I1058
sS'14902'
p2105
I1057
sS'14905'
p2106
I1060
sS'14904'
p2107
I1059
sS'14907'
p2108
I1062
sS'14906'
p2109
I1061
sS'14169'
p2110
I810
sS'14168'
p2111
I809
sS'14163'
p2112
I804
sS'14162'
p2113
I803
sS'14161'
p2114
I802
sS'14160'
p2115
I801
sS'14167'
p2116
I808
sS'14166'
p2117
I807
sS'14165'
p2118
I806
sS'14164'
p2119
I805
sS'18041'
p2120
I2252
sS'18538'
p2121
I2425
sS'18539'
p2122
I2426
sS'13171'
p2123
I460
sS'18531'
p2124
I2418
sS'13173'
p2125
I462
sS'13172'
p2126
I461
sS'18534'
p2127
I2421
sS'13174'
p2128
I463
sS'18536'
p2129
I2423
sS'13176'
p2130
I465
sS'15168'
p2131
I1161
sS'15169'
p2132
I1162
sS'15160'
p2133
I1153
sS'15161'
p2134
I1154
sS'15162'
p2135
I1155
sS'15163'
p2136
I1156
sS'15164'
p2137
I1157
sS'15165'
p2138
I1158
sS'15166'
p2139
I1159
sS'15167'
p2140
I1160
sS'18533'
p2141
I2420
sS'18794'
p2142
I2519
sS'18795'
p2143
I2520
sS'18796'
p2144
I2521
sS'18797'
p2145
I2522
sS'18790'
p2146
I2515
sS'18791'
p2147
I2516
sS'18792'
p2148
I2517
sS'18793'
p2149
I2518
sS'12582'
p2150
I195
sS'19045'
p2151
I2608
sS'18798'
p2152
I2523
sS'18799'
p2153
I2524
sS'18224'
p2154
I2273
sS'18225'
p2155
I2274
sS'18226'
p2156
I2275
sS'18227'
p2157
I2276
sS'18220'
p2158
I2269
sS'18221'
p2159
I2270
sS'18222'
p2160
I2271
sS'18223'
p2161
I2272
sS'18228'
p2162
I2277
sS'18229'
p2163
I2278
sS'20297'
p2164
I3050
sS'18527'
p2165
I2414
sS'18008'
p2166
I2219
sS'18009'
p2167
I2220
sS'18526'
p2168
I2413
sS'18004'
p2169
I2215
sS'18005'
p2170
I2216
sS'18006'
p2171
I2217
sS'18007'
p2172
I2218
sS'18000'
p2173
I2211
sS'18001'
p2174
I2212
sS'18002'
p2175
I2213
sS'18003'
p2176
I2214
sS'13375'
p2177
I502
sS'15698'
p2178
I1367
sS'15699'
p2179
I1368
sS'19043'
p2180
I2606
sS'15692'
p2181
I1361
sS'15693'
p2182
I1362
sS'15690'
p2183
I1359
sS'15691'
p2184
I1360
sS'15696'
p2185
I1365
sS'15697'
p2186
I1366
sS'15694'
p2187
I1363
sS'15695'
p2188
I1364
sS'18521'
p2189
I2408
sS'15988'
p2190
I1495
sS'15989'
p2191
I1496
sS'15986'
p2192
I1493
sS'15987'
p2193
I1494
sS'15984'
p2194
I1491
sS'15985'
p2195
I1492
sS'15982'
p2196
I1489
sS'15983'
p2197
I1490
sS'15980'
p2198
I1487
sS'15981'
p2199
I1488
sS'19042'
p2200
I2605
sS'15436'
p2201
I1267
sS'15437'
p2202
I1268
sS'13919'
p2203
I722
sS'13918'
p2204
I721
sS'15432'
p2205
I1263
sS'15433'
p2206
I1264
sS'15430'
p2207
I1261
sS'15431'
p2208
I1262
sS'13913'
p2209
I716
sS'13912'
p2210
I715
sS'13911'
p2211
I714
sS'13910'
p2212
I713
sS'13917'
p2213
I720
sS'13916'
p2214
I719
sS'15438'
p2215
I1269
sS'13914'
p2216
I717
sS'15186'
p2217
I1179
sS'15187'
p2218
I1180
sS'15184'
p2219
I1177
sS'15185'
p2220
I1178
sS'15182'
p2221
I1175
sS'15183'
p2222
I1176
sS'15180'
p2223
I1173
sS'15181'
p2224
I1174
sS'18300'
p2225
I2349
sS'15188'
p2226
I1181
sS'15189'
p2227
I1182
sS'12585'
p2228
I198
sS'19058'
p2229
I2621
sS'12584'
p2230
I197
sS'19049'
p2231
I2612
sS'20266'
p2232
I3019
sS'19047'
p2233
I2610
sS'19046'
p2234
I2609
sS'15482'
p2235
I1313
sS'19044'
p2236
I2607
sS'15230'
p2237
I1223
sS'14378'
p2238
I857
sS'19041'
p2239
I2604
sS'19040'
p2240
I2603
sS'14379'
p2241
I858
sS'18558'
p2242
I2445
sS'19053'
p2243
I2616
sS'16476'
p2244
I1659
sS'15481'
p2245
I1312
sS'20260'
p2246
I3013
sS'12631'
p2247
I244
sS'12630'
p2248
I243
sS'12633'
p2249
I246
sS'12632'
p2250
I245
sS'12635'
p2251
I248
sS'12634'
p2252
I247
sS'12637'
p2253
I250
sS'12636'
p2254
I249
sS'12639'
p2255
I252
sS'12638'
p2256
I251
sS'19057'
p2257
I2620
sS'9266'
p2258
I3073
sS'16202'
p2259
I1547
sS'9265'
p2260
I3072
sS'17020'
p2261
I1879
sS'14374'
p2262
I853
sS'14375'
p2263
I854
sS'19533'
p2264
I2772
sS'19532'
p2265
I2771
sS'19531'
p2266
I2770
sS'19530'
p2267
I2769
sS'19537'
p2268
I2776
sS'19536'
p2269
I2775
sS'19535'
p2270
I2774
sS'19534'
p2271
I2773
sS'19539'
p2272
I2778
sS'19538'
p2273
I2777
sS'16183'
p2274
I1528
sS'16182'
p2275
I1527
sS'16181'
p2276
I1526
sS'16180'
p2277
I1525
sS'16187'
p2278
I1532
sS'16186'
p2279
I1531
sS'16185'
p2280
I1530
sS'16184'
p2281
I1529
sS'16189'
p2282
I1534
sS'16188'
p2283
I1533
sS'16204'
p2284
I1549
sS'16417'
p2285
I1600
sS'17452'
p2286
I1987
sS'17453'
p2287
I1988
sS'17450'
p2288
I1985
sS'17451'
p2289
I1986
sS'17456'
p2290
I1991
sS'17457'
p2291
I1992
sS'17454'
p2292
I1989
sS'17455'
p2293
I1990
sS'17458'
p2294
I1993
sS'17459'
p2295
I1994
sS'9303'
p2296
I3110
sS'16459'
p2297
I1642
sS'16458'
p2298
I1641
sS'16989'
p2299
I1848
sS'16988'
p2300
I1847
sS'13346'
p2301
I473
sS'13347'
p2302
I474
sS'17697'
p2303
I2070
sS'16983'
p2304
I1842
sS'17699'
p2305
I2072
sS'16981'
p2306
I1840
sS'13349'
p2307
I476
sS'16987'
p2308
I1846
sS'16986'
p2309
I1845
sS'16457'
p2310
I1640
sS'16984'
p2311
I1843
sS'18552'
p2312
I2439
sS'17214'
p2313
I1911
sS'17215'
p2314
I1912
sS'17216'
p2315
I1913
sS'17217'
p2316
I1914
sS'17210'
p2317
I1907
sS'17211'
p2318
I1908
sS'16207'
p2319
I1552
sS'17213'
p2320
I1910
sS'17218'
p2321
I1915
sS'17219'
p2322
I1916
sS'18553'
p2323
I2440
sS'12367'
p2324
I142
sS'12366'
p2325
I141
sS'12365'
p2326
I140
sS'12364'
p2327
I139
sS'12363'
p2328
I138
sS'12362'
p2329
I137
sS'12361'
p2330
I136
sS'12360'
p2331
I135
sS'18550'
p2332
I2437
sS'12369'
p2333
I144
sS'12368'
p2334
I143
sS'12397'
p2335
I172
sS'14174'
p2336
I815
sS'15450'
p2337
I1281
sS'18495'
p2338
I2382
sS'18494'
p2339
I2381
sS'14170'
p2340
I811
sS'14171'
p2341
I812
sS'18491'
p2342
I2378
sS'18490'
p2343
I2377
sS'14912'
p2344
I1067
sS'14913'
p2345
I1068
sS'14910'
p2346
I1065
sS'14911'
p2347
I1066
sS'14178'
p2348
I819
sS'14179'
p2349
I820
sS'14914'
p2350
I1069
sS'14915'
p2351
I1070
sS'15453'
p2352
I1284
sS'18045'
p2353
I2256
sS'12391'
p2354
I166
sS'14712'
p2355
I1029
sS'13168'
p2356
I457
sS'13169'
p2357
I458
sS'18813'
p2358
I2538
sS'18812'
p2359
I2537
sS'18811'
p2360
I2536
sS'18810'
p2361
I2535
sS'13166'
p2362
I455
sS'13167'
p2363
I456
sS'13164'
p2364
I453
sS'18814'
p2365
I2539
sS'18525'
p2366
I2412
sS'18251'
p2367
I2300
sS'18250'
p2368
I2299
sS'18253'
p2369
I2302
sS'18252'
p2370
I2301
sS'18255'
p2371
I2304
sS'18254'
p2372
I2303
sS'18257'
p2373
I2306
sS'18256'
p2374
I2305
sS'18259'
p2375
I2308
sS'18258'
p2376
I2307
sS'16479'
p2377
I1662
sS'18524'
p2378
I2411
sS'18468'
p2379
I2355
sS'16478'
p2380
I1661
sS'18523'
p2381
I2410
sS'14127'
p2382
I768
sS'14126'
p2383
I767
sS'13904'
p2384
I707
sS'13905'
p2385
I708
sS'13906'
p2386
I709
sS'13907'
p2387
I710
sS'13900'
p2388
I703
sS'13901'
p2389
I704
sS'13902'
p2390
I705
sS'13903'
p2391
I706
sS'18522'
p2392
I2409
sS'13908'
p2393
I711
sS'13909'
p2394
I712
sS'13348'
p2395
I475
sS'15403'
p2396
I1234
sS'15402'
p2397
I1233
sS'15401'
p2398
I1232
sS'15400'
p2399
I1231
sS'15407'
p2400
I1238
sS'15406'
p2401
I1237
sS'15405'
p2402
I1236
sS'15404'
p2403
I1235
sS'15409'
p2404
I1240
sS'15408'
p2405
I1239
sS'19027'
p2406
I2590
sS'39'
p2407
I49
sS'19754'
p2408
I2831
sS'32'
p2409
I48
sS'19752'
p2410
I2829
sS'19751'
p2411
I2828
sS'19750'
p2412
I2827
sS'15683'
p2413
I1352
sS'19245'
p2414
I2646
sS'17229'
p2415
I1926
sS'17735'
p2416
I2108
sS'16216'
p2417
I1561
sS'9320'
p2418
I3127
sS'19247'
p2419
I2648
sS'16742'
p2420
I1763
sS'16213'
p2421
I1558
sS'17739'
p2422
I2112
sS'16212'
p2423
I1557
sS'17228'
p2424
I1925
sS'19059'
p2425
I2622
sS'17738'
p2426
I2111
sS'16211'
p2427
I1556
sS'19050'
p2428
I2613
sS'19051'
p2429
I2614
sS'19052'
p2430
I2615
sS'16746'
p2431
I1767
sS'19054'
p2432
I2617
sS'19055'
p2433
I2618
sS'19056'
p2434
I2619
sS'18244'
p2435
I2293
sS'12622'
p2436
I235
sS'12623'
p2437
I236
sS'12620'
p2438
I233
sS'12621'
p2439
I234
sS'12626'
p2440
I239
sS'12627'
p2441
I240
sS'12624'
p2442
I237
sS'12625'
p2443
I238
sS'12628'
p2444
I241
sS'12629'
p2445
I242
sS'19528'
p2446
I2767
sS'19529'
p2447
I2768
sS'18774'
p2448
I2499
sS'19524'
p2449
I2763
sS'19525'
p2450
I2764
sS'19526'
p2451
I2765
sS'19527'
p2452
I2766
sS'19520'
p2453
I2759
sS'19521'
p2454
I2760
sS'19522'
p2455
I2761
sS'19523'
p2456
I2762
sS'17698'
p2457
I2071
sS'16198'
p2458
I1543
sS'16199'
p2459
I1544
sS'16194'
p2460
I1539
sS'16195'
p2461
I1540
sS'16196'
p2462
I1541
sS'16197'
p2463
I1542
sS'16190'
p2464
I1535
sS'16191'
p2465
I1536
sS'16192'
p2466
I1537
sS'16193'
p2467
I1538
sS'16214'
p2468
I1559
sS'18512'
p2469
I2399
sS'19233'
p2470
I2634
sS'19234'
p2471
I2635
sS'19235'
p2472
I2636
sS'19236'
p2473
I2637
sS'19237'
p2474
I2638
sS'19238'
p2475
I2639
sS'19239'
p2476
I2640
sS'16994'
p2477
I1853
sS'16995'
p2478
I1854
sS'16996'
p2479
I1855
sS'16997'
p2480
I1856
sS'16990'
p2481
I1849
sS'16991'
p2482
I1850
sS'17469'
p2483
I2004
sS'16993'
p2484
I1852
sS'17467'
p2485
I2002
sS'17466'
p2486
I2001
sS'17465'
p2487
I2000
sS'17464'
p2488
I1999
sS'16998'
p2489
I1857
sS'16999'
p2490
I1858
sS'17461'
p2491
I1996
sS'17460'
p2492
I1995
sS'16448'
p2493
I1631
sS'16449'
p2494
I1632
sS'13379'
p2495
I506
sS'13378'
p2496
I505
sS'13377'
p2497
I504
sS'13376'
p2498
I503
sS'16440'
p2499
I1623
sS'16441'
p2500
I1624
sS'13373'
p2501
I500
sS'13372'
p2502
I499
sS'13371'
p2503
I498
sS'16445'
p2504
I1628
sS'17261'
p2505
I1958
sS'17260'
p2506
I1957
sS'17263'
p2507
I1960
sS'17262'
p2508
I1959
sS'17265'
p2509
I1962
sS'17264'
p2510
I1961
sS'17267'
p2511
I1964
sS'17266'
p2512
I1963
sS'17269'
p2513
I1966
sS'17268'
p2514
I1965
sS'15650'
p2515
I1319
sS'13928'
p2516
I731
sS'13929'
p2517
I732
sS'15720'
p2518
I1389
sS'17009'
p2519
I1868
sS'17008'
p2520
I1867
sS'15721'
p2521
I1390
sS'17001'
p2522
I1860
sS'17000'
p2523
I1859
sS'17003'
p2524
I1862
sS'17002'
p2525
I1861
sS'17005'
p2526
I1864
sS'17004'
p2527
I1863
sS'17007'
p2528
I1866
sS'18498'
p2529
I2385
sS'12370'
p2530
I145
sS'12371'
p2531
I146
sS'12372'
p2532
I147
sS'13925'
p2533
I728
sS'16210'
p2534
I1555
sS'12375'
p2535
I150
sS'12376'
p2536
I151
sS'12377'
p2537
I152
sS'12378'
p2538
I153
sS'12379'
p2539
I154
sS'15725'
p2540
I1394
sS'16206'
p2541
I1551
sS'13923'
p2542
I726
sS'19062'
p2543
I2625
sS'15728'
p2544
I1397
sS'18480'
p2545
I2367
sS'18481'
p2546
I2368
sS'18482'
p2547
I2369
sS'18483'
p2548
I2370
sS'18484'
p2549
I2371
sS'18485'
p2550
I2372
sS'18486'
p2551
I2373
sS'18487'
p2552
I2374
sS'18488'
p2553
I2375
sS'18489'
p2554
I2376
sS'17715'
p2555
I2088
sS'17714'
p2556
I2087
sS'17717'
p2557
I2090
sS'17716'
p2558
I2089
sS'17711'
p2559
I2084
sS'17710'
p2560
I2083
sS'17713'
p2561
I2086
sS'17712'
p2562
I2085
sS'14959'
p2563
I1114
sS'17719'
p2564
I2092
sS'17718'
p2565
I2091
sS'13157'
p2566
I446
sS'17484'
p2567
I2019
sS'18806'
p2568
I2531
sS'17486'
p2569
I2021
sS'17481'
p2570
I2016
sS'17480'
p2571
I2015
sS'17483'
p2572
I2018
sS'13150'
p2573
I439
sS'17489'
p2574
I2024
sS'17488'
p2575
I2023
sS'13159'
p2576
I448
sS'13158'
p2577
I447
sS'13395'
p2578
I522
sS'13394'
p2579
I521
sS'13397'
p2580
I524
sS'13396'
p2581
I523
sS'13391'
p2582
I518
sS'13390'
p2583
I517
sS'13393'
p2584
I520
sS'13392'
p2585
I519
sS'13399'
p2586
I526
sS'13398'
p2587
I525
sS'15740'
p2588
I1409
sS'15741'
p2589
I1410
sS'15742'
p2590
I1411
sS'13355'
p2591
I482
sS'88'
p2592
I92
sS'89'
p2593
I93
sS'82'
p2594
I86
sS'83'
p2595
I87
sS'80'
p2596
I84
sS'81'
p2597
I85
sS'86'
p2598
I90
sS'87'
p2599
I91
sS'84'
p2600
I88
sS'85'
p2601
I89
sS'16992'
p2602
I1851
sS'17468'
p2603
I2003
sS'14927'
p2604
I1082
sS'14926'
p2605
I1081
sS'14925'
p2606
I1080
sS'14924'
p2607
I1079
sS'14923'
p2608
I1078
sS'14922'
p2609
I1077
sS'14921'
p2610
I1076
sS'14920'
p2611
I1075
sS'18248'
p2612
I2297
sS'18249'
p2613
I2298
sS'218'
p2614
I44
sS'14929'
p2615
I1084
sS'14928'
p2616
I1083
sS'17463'
p2617
I1998
sS'17462'
p2618
I1997
sS'18518'
p2619
I2405
sS'16442'
p2620
I1625
sS'15418'
p2621
I1249
sS'15419'
p2622
I1250
sS'16443'
p2623
I1626
sS'15414'
p2624
I1245
sS'15415'
p2625
I1246
sS'15416'
p2626
I1247
sS'15417'
p2627
I1248
sS'15410'
p2628
I1241
sS'15411'
p2629
I1242
sS'15412'
p2630
I1243
sS'15413'
p2631
I1244
sS'14435'
p2632
I914
sS'14434'
p2633
I913
sS'14437'
p2634
I916
sS'14436'
p2635
I915
sS'14431'
p2636
I910
sS'14430'
p2637
I909
sS'14433'
p2638
I912
sS'14432'
p2639
I911
sS'16446'
p2640
I1629
sS'14439'
p2641
I918
sS'14438'
p2642
I917
sS'16447'
p2643
I1630
sS'13155'
p2644
I444
sS'14700'
p2645
I1017
sS'13125'
p2646
I414
sS'16444'
p2647
I1627
sS'13122'
p2648
I411
sS'13370'
p2649
I497
sS'13123'
p2650
I412
sS'13120'
p2651
I409
sS'13121'
p2652
I410
sS'12578'
p2653
I191
sS'12579'
p2654
I192
sS'12577'
p2655
I190
sS'18040'
p2656
I2251
sS'16509'
p2657
I1692
sS'16508'
p2658
I1691
sS'16507'
p2659
I1690
sS'16506'
p2660
I1689
sS'16505'
p2661
I1688
sS'16504'
p2662
I1687
sS'16503'
p2663
I1686
sS'18042'
p2664
I2253
sS'16501'
p2665
I1684
sS'16500'
p2666
I1683
sS'18043'
p2667
I2254
sS'12619'
p2668
I232
sS'12618'
p2669
I231
sS'12617'
p2670
I230
sS'12616'
p2671
I229
sS'12615'
p2672
I228
sS'12614'
p2673
I227
sS'12613'
p2674
I226
sS'12612'
p2675
I225
sS'12611'
p2676
I224
sS'12610'
p2677
I223
sS'18046'
p2678
I2257
sS'19559'
p2679
I2798
sS'19558'
p2680
I2797
sS'19551'
p2681
I2790
sS'19550'
p2682
I2789
sS'19553'
p2683
I2792
sS'19552'
p2684
I2791
sS'19555'
p2685
I2794
sS'15221'
p2686
I1214
sS'19557'
p2687
I2796
sS'19556'
p2688
I2795
sS'18301'
p2689
I2350
sS'13625'
p2690
I590
sS'18286'
p2691
I2335
sS'13627'
p2692
I592
sS'13626'
p2693
I591
sS'13621'
p2694
I586
sS'13620'
p2695
I585
sS'13623'
p2696
I588
sS'18287'
p2697
I2336
sS'13629'
p2698
I594
sS'18284'
p2699
I2333
sS'18285'
p2700
I2334
sS'18282'
p2701
I2331
sS'18283'
p2702
I2332
sS'17478'
p2703
I2013
sS'17479'
p2704
I2014
sS'16475'
p2705
I1658
sS'15228'
p2706
I1221
sS'16473'
p2707
I1656
sS'14701'
p2708
I1018
sS'16471'
p2709
I1654
sS'16470'
p2710
I1653
sS'17470'
p2711
I2005
sS'17471'
p2712
I2006
sS'17472'
p2713
I2007
sS'18281'
p2714
I2330
sS'17474'
p2715
I2009
sS'17475'
p2716
I2010
sS'17476'
p2717
I2011
sS'17477'
p2718
I2012
sS'13368'
p2719
I495
sS'13369'
p2720
I496
sS'13360'
p2721
I487
sS'13361'
p2722
I488
sS'13362'
p2723
I489
sS'13363'
p2724
I490
sS'13364'
p2725
I491
sS'13365'
p2726
I492
sS'13366'
p2727
I493
sS'13367'
p2728
I494
sS'17272'
p2729
I1969
sS'17273'
p2730
I1970
sS'17270'
p2731
I1967
sS'17271'
p2732
I1968
sS'17276'
p2733
I1973
sS'17277'
p2734
I1974
sS'17274'
p2735
I1971
sS'17275'
p2736
I1972
sS'17278'
p2737
I1975
sS'15651'
p2738
I1320
sS'9270'
p2739
I3077
sS'9271'
p2740
I3078
sS'9272'
p2741
I3079
sS'9273'
p2742
I3080
sS'9274'
p2743
I3081
sS'9275'
p2744
I3082
sS'9276'
p2745
I3083
sS'9277'
p2746
I3084
sS'9278'
p2747
I3085
sS'9279'
p2748
I3086
sS'19549'
p2749
I2788
sS'17018'
p2750
I1877
sS'17019'
p2751
I1878
sS'17012'
p2752
I1871
sS'17013'
p2753
I1872
sS'17010'
p2754
I1869
sS'17011'
p2755
I1870
sS'17016'
p2756
I1875
sS'17017'
p2757
I1876
sS'17014'
p2758
I1873
sS'17015'
p2759
I1874
sS'12389'
p2760
I164
sS'12388'
p2761
I163
sS'12385'
p2762
I160
sS'12384'
p2763
I159
sS'12387'
p2764
I162
sS'12386'
p2765
I161
sS'12381'
p2766
I156
sS'12380'
p2767
I155
sS'12383'
p2768
I158
sS'12382'
p2769
I157
sS'14113'
p2770
I754
sS'14116'
p2771
I757
sS'14117'
p2772
I758
sS'14114'
p2773
I755
sS'14115'
p2774
I756
sS'18475'
p2775
I2362
sS'18474'
p2776
I2361
sS'18477'
p2777
I2364
sS'14119'
p2778
I760
sS'18471'
p2779
I2358
sS'18470'
p2780
I2357
sS'18473'
p2781
I2360
sS'18472'
p2782
I2359
sS'17706'
p2783
I2079
sS'17707'
p2784
I2080
sS'17704'
p2785
I2077
sS'17705'
p2786
I2078
sS'9308'
p2787
I3115
sS'9309'
p2788
I3116
sS'17700'
p2789
I2073
sS'17701'
p2790
I2074
sS'9304'
p2791
I3111
sS'9305'
p2792
I3112
sS'9306'
p2793
I3113
sS'9307'
p2794
I3114
sS'9300'
p2795
I3107
sS'9301'
p2796
I3108
sS'9302'
p2797
I3109
sS'17709'
p2798
I2082
sS'13140'
p2799
I429
sS'17497'
p2800
I2032
sS'17494'
p2801
I2029
sS'17495'
p2802
I2030
sS'17492'
p2803
I2027
sS'17493'
p2804
I2028
sS'17490'
p2805
I2025
sS'17491'
p2806
I2026
sS'13148'
p2807
I437
sS'13149'
p2808
I438
sS'17498'
p2809
I2033
sS'17499'
p2810
I2034
sS'13386'
p2811
I513
sS'13387'
p2812
I514
sS'13384'
p2813
I511
sS'13385'
p2814
I512
sS'13382'
p2815
I509
sS'13383'
p2816
I510
sS'13380'
p2817
I507
sS'13381'
p2818
I508
sS'17006'
p2819
I1865
sS'13388'
p2820
I515
sS'13389'
p2821
I516
sS'15731'
p2822
I1400
sS'15730'
p2823
I1399
sS'15733'
p2824
I1402
sS'15732'
p2825
I1401
sS'15735'
p2826
I1404
sS'15734'
p2827
I1403
sS'15737'
p2828
I1406
sS'15736'
p2829
I1405
sS'15739'
p2830
I1408
sS'15738'
p2831
I1407
sS'12373'
p2832
I148
sS'12374'
p2833
I149
sS'14930'
p2834
I1085
sS'14931'
p2835
I1086
sS'14932'
p2836
I1087
sS'14933'
p2837
I1088
sS'14934'
p2838
I1089
sS'14935'
p2839
I1090
sS'18279'
p2840
I2328
sS'18278'
p2841
I2327
sS'18277'
p2842
I2326
sS'14939'
p2843
I1094
sS'18275'
p2844
I2324
sS'18274'
p2845
I2323
sS'18273'
p2846
I2322
sS'18272'
p2847
I2321
sS'18271'
p2848
I2320
sS'18270'
p2849
I2319
sS'18725'
p2850
I2450
sS'18724'
p2851
I2449
sS'18727'
p2852
I2452
sS'18726'
p2853
I2451
sS'18721'
p2854
I2446
sS'18723'
p2855
I2448
sS'18722'
p2856
I2447
sS'18729'
p2857
I2454
sS'18728'
p2858
I2453
sS'18295'
p2859
I2344
sS'18294'
p2860
I2343
sS'18297'
p2861
I2346
sS'18296'
p2862
I2345
sS'18291'
p2863
I2340
sS'17979'
p2864
I2190
sS'18293'
p2865
I2342
sS'18292'
p2866
I2341
sS'18299'
p2867
I2348
sS'18298'
p2868
I2347
sS'16245'
p2869
I1590
sS'19281'
p2870
I2682
sS'15451'
p2871
I1282
sS'19280'
p2872
I2681
sS'15469'
p2873
I1300
sS'15468'
p2874
I1299
sS'15399'
p2875
I1230
sS'15398'
p2876
I1229
sS'15461'
p2877
I1292
sS'15460'
p2878
I1291
sS'15463'
p2879
I1294
sS'15462'
p2880
I1293
sS'15465'
p2881
I1296
sS'15464'
p2882
I1295
sS'15467'
p2883
I1298
sS'15466'
p2884
I1297
sS'14426'
p2885
I905
sS'14427'
p2886
I906
sS'14424'
p2887
I903
sS'14425'
p2888
I904
sS'14422'
p2889
I901
sS'14423'
p2890
I902
sS'14420'
p2891
I899
sS'14421'
p2892
I900
sS'14428'
p2893
I907
sS'14429'
p2894
I908
sS'19289'
p2895
I2690
sS'19288'
p2896
I2689
sS'13151'
p2897
I440
sS'19757'
p2898
I2834
sS'15477'
p2899
I1308
sS'16510'
p2900
I1693
sS'19019'
p2901
I2582
sS'12608'
p2902
I221
sS'12609'
p2903
I222
sS'14410'
p2904
I889
sS'12600'
p2905
I213
sS'12601'
p2906
I214
sS'12602'
p2907
I215
sS'12603'
p2908
I216
sS'12604'
p2909
I217
sS'16741'
p2910
I1762
sS'12606'
p2911
I219
sS'12607'
p2912
I220
sS'14415'
p2913
I894
sS'14414'
p2914
I893
sS'52'
p2915
I62
sS'14419'
p2916
I898
sS'19548'
p2917
I2787
sS'14418'
p2918
I897
sS'19542'
p2919
I2781
sS'19543'
p2920
I2782
sS'19540'
p2921
I2779
sS'19541'
p2922
I2780
sS'19546'
p2923
I2785
sS'17209'
p2924
I1906
sS'19544'
p2925
I2783
sS'19545'
p2926
I2784
sS'17208'
p2927
I1905
sS'13636'
p2928
I601
sS'13637'
p2929
I602
sS'13634'
p2930
I599
sS'13635'
p2931
I600
sS'13632'
p2932
I597
sS'13633'
p2933
I598
sS'13630'
p2934
I595
sS'13631'
p2935
I596
sS'13638'
p2936
I603
sS'13639'
p2937
I604
sS'19814'
p2938
I2891
sS'16460'
p2939
I1643
sS'16461'
p2940
I1644
sS'16462'
p2941
I1645
sS'16463'
p2942
I1646
sS'16464'
p2943
I1647
sS'16465'
p2944
I1648
sS'16466'
p2945
I1649
sS'16467'
p2946
I1650
sS'16468'
p2947
I1651
sS'16469'
p2948
I1652
sS'17487'
p2949
I2022
sS'13154'
p2950
I443
sS'19815'
p2951
I2892
sS'17205'
p2952
I1902
sS'18800'
p2953
I2525
sS'17204'
p2954
I1901
sS'18520'
p2955
I2407
sS'18801'
p2956
I2526
sS'18802'
p2957
I2527
sS'17482'
p2958
I2017
sS'17249'
p2959
I1946
sS'17248'
p2960
I1945
sS'17247'
p2961
I1944
sS'17246'
p2962
I1943
sS'17245'
p2963
I1942
sS'17244'
p2964
I1941
sS'17243'
p2965
I1940
sS'17242'
p2966
I1939
sS'17241'
p2967
I1938
sS'17240'
p2968
I1937
sS'9263'
p2969
I3070
sS'9262'
p2970
I3069
sS'9261'
p2971
I3068
sS'9260'
p2972
I3067
sS'9267'
p2973
I3074
sS'17022'
p2974
I1881
sS'17021'
p2975
I1880
sS'9264'
p2976
I3071
sS'18808'
p2977
I2533
sS'9269'
p2978
I3076
sS'9268'
p2979
I3075
sS'18809'
p2980
I2534
sS'16231'
p2981
I1576
sS'16230'
p2982
I1575
sS'16233'
p2983
I1578
sS'16232'
p2984
I1577
sS'12398'
p2985
I173
sS'12399'
p2986
I174
sS'12396'
p2987
I171
sS'16235'
p2988
I1580
sS'12394'
p2989
I169
sS'12395'
p2990
I170
sS'12392'
p2991
I167
sS'12393'
p2992
I168
sS'12390'
p2993
I165
sS'16234'
p2994
I1579
sS'16450'
p2995
I1633
sS'16237'
p2996
I1582
sS'16236'
p2997
I1581
sS'18497'
p2998
I2384
sS'18469'
p2999
I2356
sS'18466'
p3000
I2353
sS'18467'
p3001
I2354
sS'14125'
p3002
I766
sS'18465'
p3003
I2352
sS'14123'
p3004
I764
sS'14122'
p3005
I763
sS'14121'
p3006
I762
sS'14120'
p3007
I761
sS'17733'
p3008
I2106
sS'17732'
p3009
I2105
sS'17731'
p3010
I2104
sS'17730'
p3011
I2103
sS'17737'
p3012
I2110
sS'17736'
p3013
I2109
sS'9319'
p3014
I3126
sS'9318'
p3015
I3125
sS'9317'
p3016
I3124
sS'9316'
p3017
I3123
sS'9315'
p3018
I3122
sS'9314'
p3019
I3121
sS'9313'
p3020
I3120
sS'9312'
p3021
I3119
sS'9311'
p3022
I3118
sS'9310'
p3023
I3117
sS'18496'
p3024
I2383
sS'16452'
p3025
I1635
sS'15722'
p3026
I1391
sS'15723'
p3027
I1392
sS'14389'
p3028
I868
sS'14388'
p3029
I867
sS'15726'
p3030
I1395
sS'15727'
p3031
I1396
sS'15724'
p3032
I1393
sS'18984'
p3033
I2547
sS'14383'
p3034
I862
sS'14382'
p3035
I861
sS'14381'
p3036
I860
sS'15729'
p3037
I1398
sS'14387'
p3038
I866
sS'14386'
p3039
I865
sS'14385'
p3040
I864
sS'14384'
p3041
I863
sS'14639'
p3042
I956
sS'14638'
p3043
I955
sS'14633'
p3044
I950
sS'14632'
p3045
I949
sS'14631'
p3046
I948
sS'14630'
p3047
I947
sS'14637'
p3048
I954
sS'14636'
p3049
I953
sS'14635'
p3050
I952
sS'14634'
p3051
I951
sS'12909'
p3052
I360
sS'18233'
p3053
I2282
sS'17981'
p3054
I2192
sS'12908'
p3055
I359
sS'18268'
p3056
I2317
sS'18269'
p3057
I2318
sS'18260'
p3058
I2309
sS'18261'
p3059
I2310
sS'18262'
p3060
I2311
sS'18263'
p3061
I2312
sS'18264'
p3062
I2313
sS'18265'
p3063
I2314
sS'18266'
p3064
I2315
sS'18267'
p3065
I2316
sS'18736'
p3066
I2461
sS'18737'
p3067
I2462
sS'18734'
p3068
I2459
sS'18735'
p3069
I2460
sS'18044'
p3070
I2255
sS'18733'
p3071
I2458
sS'18730'
p3072
I2455
sS'18731'
p3073
I2456
sS'12903'
p3074
I354
sS'18738'
p3075
I2463
sS'18739'
p3076
I2464
sS'14707'
p3077
I1024
sS'14706'
p3078
I1023
sS'14705'
p3079
I1022
sS'14704'
p3080
I1021
sS'14703'
p3081
I1020
sS'14702'
p3082
I1019
sS'15658'
p3083
I1327
sS'15659'
p3084
I1328
sS'15656'
p3085
I1325
sS'15657'
p3086
I1326
sS'15654'
p3087
I1323
sS'15655'
p3088
I1324
sS'15652'
p3089
I1321
sS'15653'
p3090
I1322
sS'14709'
p3091
I1026
sS'14708'
p3092
I1025
sS'17983'
p3093
I2194
sS'13922'
p3094
I725
sS'19243'
p3095
I2644
sS'17984'
p3096
I2195
sS'13950'
p3097
I753
sS'20296'
p3098
I3049
sS'15478'
p3099
I1309
sS'15479'
p3100
I1310
sS'14203'
p3101
I844
sS'15472'
p3102
I1303
sS'15473'
p3103
I1304
sS'15470'
p3104
I1301
sS'15471'
p3105
I1302
sS'15476'
p3106
I1307
sS'14200'
p3107
I841
sS'15474'
p3108
I1305
sS'15475'
p3109
I1306
sS'14413'
p3110
I892
sS'14412'
p3111
I891
sS'14411'
p3112
I890
sS'14201'
p3113
I842
sS'14417'
p3114
I896
sS'14416'
p3115
I895
sS'48'
p3116
I58
sS'49'
p3117
I59
sS'46'
p3118
I56
sS'47'
p3119
I57
sS'44'
p3120
I54
sS'45'
p3121
I55
sS'42'
p3122
I52
sS'43'
p3123
I53
sS'40'
p3124
I50
sS'41'
p3125
I51
sS'15446'
p3126
I1277
sS'20290'
p3127
I3043
sS'20291'
p3128
I3044
sS'15445'
p3129
I1276
sS'17987'
p3130
I2198
sS'20059'
p3131
I2974
sS'20054'
p3132
I2969
sS'14193'
p3133
I834
sS'168'
p3134
I1
sS'14190'
p3135
I831
sS'13354'
p3136
I481
s.